TN:
SF:/home/atcsol/git/PROYECTO_OBDH/uah_exp_freertos_project_2024/service_libraries/edroomsl/edroombp/include/public/edroombp.h
FN:122,_ZN9Pr_KernelD2Ev
FNDA:0,_ZN9Pr_KernelD2Ev
FN:192,_ZN12Pr_SemaphoreD2Ev
FNDA:0,_ZN12Pr_SemaphoreD2Ev
FN:261,_ZN15Pr_SemaphoreBinD2Ev
FNDA:0,_ZN15Pr_SemaphoreBinD2Ev
FN:337,_ZN15Pr_SemaphoreRecD2Ev
FNDA:0,_ZN15Pr_SemaphoreRecD2Ev
FN:533,_ZN7Pr_TaskD2Ev
FNDA:0,_ZN7Pr_TaskD2Ev
DA:122,0
DA:192,0
DA:194,0
DA:195,0
DA:261,0
DA:264,0
DA:337,0
DA:533,0
DA:536,0
end_of_record
SF:/home/atcsol/git/PROYECTO_OBDH/uah_exp_freertos_project_2024/asw/components/uahexplorer/include/public/uahexplorer_iface_v1.h
end_of_record
SF:/home/atcsol/git/PROYECTO_OBDH/uah_exp_freertos_project_2024/asw/components/cctm_channelctrl/include/public/cctm_channelctrl_iface_v1.h
end_of_record
SF:/home/atcsol/git/PROYECTO_OBDH/uah_exp_freertos_project_2024/service_libraries/edroomsl/edroomsl/include/edroomsl/edroomsl.h
FN:115,_ZN11CEDROOMPoolD0Ev
FNDA:0,_ZN11CEDROOMPoolD0Ev
FN:115,_ZN11CEDROOMPoolD2Ev
FNDA:0,_ZN11CEDROOMPoolD2Ev
FN:236,_ZN17CEDROOMMemoryPoolD0Ev
FNDA:0,_ZN17CEDROOMMemoryPoolD0Ev
FN:236,_ZN17CEDROOMMemoryPoolD2Ev
FNDA:0,_ZN17CEDROOMMemoryPoolD2Ev
FN:314,_ZN26CEDROOMProtectedMemoryPoolD0Ev
FNDA:0,_ZN26CEDROOMProtectedMemoryPoolD0Ev
FN:314,_ZN26CEDROOMProtectedMemoryPoolD2Ev
FNDA:0,_ZN26CEDROOMProtectedMemoryPoolD2Ev
FN:726,_ZN19CEDROOMMessagesPoolD0Ev
FNDA:0,_ZN19CEDROOMMessagesPoolD0Ev
FN:726,_ZN19CEDROOMMessagesPoolD2Ev
FNDA:0,_ZN19CEDROOMMessagesPoolD2Ev
FN:761,_ZN26CEDROOMTimeOutMessagesPoolD0Ev
FNDA:0,_ZN26CEDROOMTimeOutMessagesPoolD0Ev
FN:761,_ZN26CEDROOMTimeOutMessagesPoolD2Ev
FNDA:0,_ZN26CEDROOMTimeOutMessagesPoolD2Ev
FN:1812,_ZN16CEDROOMTXChannelD0Ev
FNDA:0,_ZN16CEDROOMTXChannelD0Ev
FN:1812,_ZN16CEDROOMTXChannelD2Ev
FNDA:0,_ZN16CEDROOMTXChannelD2Ev
FN:1883,_ZN21CEDROOMLocalTXChannelD0Ev
FNDA:0,_ZN21CEDROOMLocalTXChannelD0Ev
FN:1883,_ZN21CEDROOMLocalTXChannelD2Ev
FNDA:0,_ZN21CEDROOMLocalTXChannelD2Ev
DA:115,0
DA:115,0
DA:236,0
DA:236,0
DA:314,0
DA:314,0
DA:726,0
DA:726,0
DA:761,0
DA:761,0
DA:1812,0
DA:1812,0
DA:1883,0
DA:1883,0
end_of_record
SF:/home/atcsol/git/PROYECTO_OBDH/uah_exp_freertos_project_2024/asw/components/ccbkgtcexec/include/public/ccbkgtcexec_iface_v1.h
end_of_record
SF:/home/atcsol/git/PROYECTO_OBDH/uah_exp_freertos_project_2024/asw/components/cchk_fdirmng/include/public/cchk_fdirmng_iface_v1.h
end_of_record
SF:/home/atcsol/git/PROYECTO_OBDH/uah_exp_freertos_project_2024/asw/components/ccguidance/include/public/ccguidance_iface_v1.h
end_of_record
SF:/home/atcsol/git/PROYECTO_OBDH/uah_exp_freertos_project_2024/uahexplorer_mmesp_project.cpp
FN:26,main
FNDA:1,main
DA:26,1
DA:37,1
DA:38,1
DA:39,1
DA:40,1
DA:41,1
DA:42,1
DA:44,1
DA:46,1
DA:48,0
DA:50,0
end_of_record
SF:/home/atcsol/git/PROYECTO_OBDH/uah_exp_freertos_project_2024/asw/components/ccexplorermanager/include/public/ccexplorermanager_iface_v1.h
end_of_record
SF:/home/atcsol/git/PROYECTO_OBDH/uah_exp_freertos_project_2024/asw/edroom_glue/include/edroom_glue/edroomdeployment.h
FN:196,_ZN23CEDROOMSystemDeployment14GetComp1MemoryEv
FNDA:1,_ZN23CEDROOMSystemDeployment14GetComp1MemoryEv
FN:197,_ZN23CEDROOMSystemDeployment14GetComp2MemoryEv
FNDA:1,_ZN23CEDROOMSystemDeployment14GetComp2MemoryEv
FN:198,_ZN23CEDROOMSystemDeployment14GetComp3MemoryEv
FNDA:1,_ZN23CEDROOMSystemDeployment14GetComp3MemoryEv
FN:199,_ZN23CEDROOMSystemDeployment14GetComp4MemoryEv
FNDA:1,_ZN23CEDROOMSystemDeployment14GetComp4MemoryEv
FN:200,_ZN23CEDROOMSystemDeployment14GetComp5MemoryEv
FNDA:1,_ZN23CEDROOMSystemDeployment14GetComp5MemoryEv
FN:201,_ZN23CEDROOMSystemDeployment14GetComp6MemoryEv
FNDA:1,_ZN23CEDROOMSystemDeployment14GetComp6MemoryEv
DA:196,1
DA:197,1
DA:198,1
DA:199,1
DA:200,1
DA:201,1
end_of_record
TN:
SF:/home/atcsol/git/PROYECTO_OBDH/uah_exp_freertos_project_2024/asw/components/ccguidance/include/public/ccguidance_iface_v1.h
end_of_record
SF:/home/atcsol/git/PROYECTO_OBDH/uah_exp_freertos_project_2024/asw/components/ccexplorermanager/include/public/ccexplorermanager_iface_v1.h
end_of_record
SF:/home/atcsol/git/PROYECTO_OBDH/uah_exp_freertos_project_2024/asw/edroom_glue/include/edroom_glue/edroomdeployment.h
end_of_record
SF:/home/atcsol/git/PROYECTO_OBDH/uah_exp_freertos_project_2024/asw/edroom_glue/src/edroomdeployment.cpp
FN:11,_Z8MainWaitR11UAHExplorerR17CCExplorerManagerR16CCTM_ChannelCtrlR12CCHK_FDIRMngR11CCBKGTCExecR10CCGuidance
FNDA:1,_Z8MainWaitR11UAHExplorerR17CCExplorerManagerR16CCTM_ChannelCtrlR12CCHK_FDIRMngR11CCBKGTCExecR10CCGuidance
FN:38,_ZN19CEDROOMSystemMemory9SetMemoryEv
FNDA:1,_ZN19CEDROOMSystemMemory9SetMemoryEv
FN:57,_ZN20CEDROOMSystemCommSAP13SetComponentsEP11UAHExplorerP17CCExplorerManagerP16CCTM_ChannelCtrlP12CCHK_FDIRMngP11CCBKGTCExecP10CCGuidance
FNDA:1,_ZN20CEDROOMSystemCommSAP13SetComponentsEP11UAHExplorerP17CCExplorerManagerP16CCTM_ChannelCtrlP12CCHK_FDIRMngP11CCBKGTCExecP10CCGuidance
FN:79,_ZN20CEDROOMSystemCommSAP59C6Guidance_PTMChannelCtrl__C3TM_ChannelCtrl_PTMChannelCtrl4Ei
FNDA:499,_ZN20CEDROOMSystemCommSAP59C6Guidance_PTMChannelCtrl__C3TM_ChannelCtrl_PTMChannelCtrl4Ei
FN:94,_ZN20CEDROOMSystemCommSAP59C3TM_ChannelCtrl_PTMChannelCtrl4__C6Guidance_PTMChannelCtrlEi
FNDA:499,_ZN20CEDROOMSystemCommSAP59C3TM_ChannelCtrl_PTMChannelCtrl4__C6Guidance_PTMChannelCtrlEi
FN:109,_ZN20CEDROOMSystemCommSAP49C2ExplorerManager_PGuidance__C6Guidance_PGuidanceEi
FNDA:3,_ZN20CEDROOMSystemCommSAP49C2ExplorerManager_PGuidance__C6Guidance_PGuidanceEi
FN:124,_ZN20CEDROOMSystemCommSAP49C6Guidance_PGuidance__C2ExplorerManager_PGuidanceEi
FNDA:0,_ZN20CEDROOMSystemCommSAP49C6Guidance_PGuidance__C2ExplorerManager_PGuidanceEi
FN:137,_ZN20CEDROOMSystemCommSAP56C5BKGTCExec_PBKGExecCtrl__C2ExplorerManager_PBKGExecCtrlEi
FNDA:0,_ZN20CEDROOMSystemCommSAP56C5BKGTCExec_PBKGExecCtrl__C2ExplorerManager_PBKGExecCtrlEi
FN:150,_ZN20CEDROOMSystemCommSAP56C2ExplorerManager_PBKGExecCtrl__C5BKGTCExec_PBKGExecCtrlEi
FNDA:0,_ZN20CEDROOMSystemCommSAP56C2ExplorerManager_PBKGExecCtrl__C5BKGTCExec_PBKGExecCtrlEi
FN:165,_ZN20CEDROOMSystemCommSAP60C3TM_ChannelCtrl_PTMChannelCtrl3__C5BKGTCExec_PTMChannelCtrlEi
FNDA:0,_ZN20CEDROOMSystemCommSAP60C3TM_ChannelCtrl_PTMChannelCtrl3__C5BKGTCExec_PTMChannelCtrlEi
FN:180,_ZN20CEDROOMSystemCommSAP60C5BKGTCExec_PTMChannelCtrl__C3TM_ChannelCtrl_PTMChannelCtrl3Ei
FNDA:0,_ZN20CEDROOMSystemCommSAP60C5BKGTCExec_PTMChannelCtrl__C3TM_ChannelCtrl_PTMChannelCtrl3Ei
FN:195,_ZN20CEDROOMSystemCommSAP61C4HK_FDIRMng_PTMChannelCtrl__C3TM_ChannelCtrl_PTMChannelCtrl2Ei
FNDA:49,_ZN20CEDROOMSystemCommSAP61C4HK_FDIRMng_PTMChannelCtrl__C3TM_ChannelCtrl_PTMChannelCtrl2Ei
FN:210,_ZN20CEDROOMSystemCommSAP61C3TM_ChannelCtrl_PTMChannelCtrl2__C4HK_FDIRMng_PTMChannelCtrlEi
FNDA:49,_ZN20CEDROOMSystemCommSAP61C3TM_ChannelCtrl_PTMChannelCtrl2__C4HK_FDIRMng_PTMChannelCtrlEi
FN:225,_ZN20CEDROOMSystemCommSAP57C2ExplorerManager_PHK_FDIRCtrl__C4HK_FDIRMng_PHK_FDIRCtrlEi
FNDA:0,_ZN20CEDROOMSystemCommSAP57C2ExplorerManager_PHK_FDIRCtrl__C4HK_FDIRMng_PHK_FDIRCtrlEi
FN:240,_ZN20CEDROOMSystemCommSAP57C4HK_FDIRMng_PHK_FDIRCtrl__C2ExplorerManager_PHK_FDIRCtrlEi
FNDA:0,_ZN20CEDROOMSystemCommSAP57C4HK_FDIRMng_PHK_FDIRCtrl__C2ExplorerManager_PHK_FDIRCtrlEi
FN:253,_ZN20CEDROOMSystemCommSAP65C2ExplorerManager_PTMChannelCtrl__C3TM_ChannelCtrl_PTMChannelCtrlEi
FNDA:5,_ZN20CEDROOMSystemCommSAP65C2ExplorerManager_PTMChannelCtrl__C3TM_ChannelCtrl_PTMChannelCtrlEi
FN:268,_ZN20CEDROOMSystemCommSAP65C3TM_ChannelCtrl_PTMChannelCtrl__C2ExplorerManager_PTMChannelCtrlEi
FNDA:5,_ZN20CEDROOMSystemCommSAP65C3TM_ChannelCtrl_PTMChannelCtrl__C2ExplorerManager_PTMChannelCtrlEi
FN:288,_ZN20CEDROOMSystemCommSAP18RegisterInterfacesEv
FNDA:1,_ZN20CEDROOMSystemCommSAP18RegisterInterfacesEv
FN:327,_ZN20CEDROOMSystemCommSAP19SetLocalConnectionsEv
FNDA:1,_ZN20CEDROOMSystemCommSAP19SetLocalConnectionsEv
FN:363,_ZN20CEDROOMSystemCommSAP20SetRemoteConnectionsEv
FNDA:1,_ZN20CEDROOMSystemCommSAP20SetRemoteConnectionsEv
FN:370,_ZN20CEDROOMSystemCommSAP14SetConnectionsEv
FNDA:1,_ZN20CEDROOMSystemCommSAP14SetConnectionsEv
FN:380,_ZN23CEDROOMSystemDeploymentC2Ev
FNDA:1,_ZN23CEDROOMSystemDeploymentC2Ev
FN:391,_ZN23CEDROOMSystemDeployment6ConfigEP11UAHExplorerP17CCExplorerManagerP16CCTM_ChannelCtrlP12CCHK_FDIRMngP11CCBKGTCExecP10CCGuidance
FNDA:1,_ZN23CEDROOMSystemDeployment6ConfigEP11UAHExplorerP17CCExplorerManagerP16CCTM_ChannelCtrlP12CCHK_FDIRMngP11CCBKGTCExecP10CCGuidance
FN:420,_ZN23CEDROOMSystemDeployment15StartComponentsEv
FNDA:1,_ZN23CEDROOMSystemDeployment15StartComponentsEv
FN:433,_ZN23CEDROOMSystemDeployment5StartEv
FNDA:1,_ZN23CEDROOMSystemDeployment5StartEv
FN:468,_ZN23CEDROOMSystemDeployment9main_taskEv
FNDA:1,_ZN23CEDROOMSystemDeployment9main_taskEv
DA:11,1
DA:18,1
DA:32,17
DA:38,1
DA:40,1
DA:41,1
DA:42,1
DA:43,1
DA:44,1
DA:45,1
DA:46,1
DA:47,1
DA:48,1
DA:49,1
DA:50,1
DA:51,1
DA:52,1
DA:57,1
DA:63,1
DA:64,1
DA:65,1
DA:66,1
DA:67,1
DA:68,1
DA:69,1
DA:79,499
DA:83,499
DA:85,499
DA:87,0
DA:90,499
DA:94,499
DA:98,499
DA:100,499
DA:102,0
DA:105,499
DA:109,3
DA:113,3
DA:115,3
DA:117,0
DA:120,3
DA:124,0
DA:130,0
DA:133,0
DA:137,0
DA:143,0
DA:146,0
DA:150,0
DA:154,0
DA:156,0
DA:158,0
DA:161,0
DA:165,0
DA:169,0
DA:171,0
DA:173,0
DA:176,0
DA:180,0
DA:184,0
DA:186,0
DA:188,0
DA:191,0
DA:195,49
DA:199,49
DA:201,49
DA:203,0
DA:206,49
DA:210,49
DA:214,49
DA:216,49
DA:218,0
DA:221,49
DA:225,0
DA:229,0
DA:231,0
DA:233,0
DA:236,0
DA:240,0
DA:246,0
DA:249,0
DA:253,5
DA:257,5
DA:259,5
DA:261,0
DA:264,5
DA:268,5
DA:272,5
DA:274,5
DA:276,0
DA:279,5
DA:288,1
DA:291,1
DA:294,1
DA:295,1
DA:296,1
DA:297,1
DA:298,1
DA:299,1
DA:302,1
DA:303,1
DA:304,1
DA:305,1
DA:308,1
DA:309,1
DA:310,1
DA:313,1
DA:314,1
DA:317,1
DA:318,1
DA:319,1
DA:321,1
DA:327,1
DA:329,1
DA:333,1
DA:337,1
DA:341,1
DA:345,1
DA:349,1
DA:353,1
DA:357,1
DA:363,1
DA:365,1
DA:370,1
DA:372,1
DA:373,1
DA:375,1
DA:380,1
DA:384,1
DA:386,1
DA:391,1
DA:398,1
DA:399,1
DA:400,1
DA:401,1
DA:402,1
DA:403,1
DA:405,1
DA:412,1
DA:413,1
DA:415,1
DA:420,1
DA:421,1
DA:422,1
DA:423,1
DA:424,1
DA:425,1
DA:426,1
DA:428,1
DA:433,1
DA:437,1
DA:439,1
DA:457,0
DA:468,1
DA:470,1
DA:471,1
DA:472,1
DA:473,1
DA:474,1
DA:475,1
DA:476,1
DA:478,0
end_of_record
SF:/home/atcsol/git/PROYECTO_OBDH/uah_exp_freertos_project_2024/service_libraries/edroomsl/edroombp/include/public/edroombp.h
FN:122,_ZN9Pr_KernelD2Ev
FNDA:1,_ZN9Pr_KernelD2Ev
FN:192,_ZN12Pr_SemaphoreD2Ev
FNDA:0,_ZN12Pr_SemaphoreD2Ev
FN:261,_ZN15Pr_SemaphoreBinD2Ev
FNDA:0,_ZN15Pr_SemaphoreBinD2Ev
FN:533,_ZN7Pr_TaskD2Ev
FNDA:0,_ZN7Pr_TaskD2Ev
DA:122,1
DA:192,0
DA:194,0
DA:195,0
DA:261,0
DA:264,0
DA:533,0
DA:536,0
end_of_record
SF:/home/atcsol/git/PROYECTO_OBDH/uah_exp_freertos_project_2024/asw/components/uahexplorer/include/public/uahexplorer_iface_v1.h
end_of_record
SF:/home/atcsol/git/PROYECTO_OBDH/uah_exp_freertos_project_2024/asw/components/cctm_channelctrl/include/public/cctm_channelctrl_iface_v1.h
end_of_record
SF:/home/atcsol/git/PROYECTO_OBDH/uah_exp_freertos_project_2024/service_libraries/edroomsl/edroomsl/include/edroomsl/edroomsl.h
FN:115,_ZN11CEDROOMPoolD0Ev
FNDA:0,_ZN11CEDROOMPoolD0Ev
FN:115,_ZN11CEDROOMPoolD2Ev
FNDA:0,_ZN11CEDROOMPoolD2Ev
FN:236,_ZN17CEDROOMMemoryPoolD0Ev
FNDA:0,_ZN17CEDROOMMemoryPoolD0Ev
FN:236,_ZN17CEDROOMMemoryPoolD2Ev
FNDA:0,_ZN17CEDROOMMemoryPoolD2Ev
FN:726,_ZN19CEDROOMMessagesPoolD0Ev
FNDA:0,_ZN19CEDROOMMessagesPoolD0Ev
FN:726,_ZN19CEDROOMMessagesPoolD2Ev
FNDA:6,_ZN19CEDROOMMessagesPoolD2Ev
FN:761,_ZN26CEDROOMTimeOutMessagesPoolD0Ev
FNDA:0,_ZN26CEDROOMTimeOutMessagesPoolD0Ev
FN:761,_ZN26CEDROOMTimeOutMessagesPoolD2Ev
FNDA:3,_ZN26CEDROOMTimeOutMessagesPoolD2Ev
FN:1812,_ZN16CEDROOMTXChannelD0Ev
FNDA:0,_ZN16CEDROOMTXChannelD0Ev
FN:1812,_ZN16CEDROOMTXChannelD2Ev
FNDA:0,_ZN16CEDROOMTXChannelD2Ev
FN:1883,_ZN21CEDROOMLocalTXChannelD0Ev
FNDA:0,_ZN21CEDROOMLocalTXChannelD0Ev
FN:1883,_ZN21CEDROOMLocalTXChannelD2Ev
FNDA:0,_ZN21CEDROOMLocalTXChannelD2Ev
DA:115,0
DA:115,0
DA:236,0
DA:236,0
DA:726,0
DA:726,6
DA:761,0
DA:761,3
DA:1812,0
DA:1812,0
DA:1883,0
DA:1883,0
end_of_record
SF:/home/atcsol/git/PROYECTO_OBDH/uah_exp_freertos_project_2024/asw/components/ccbkgtcexec/include/public/ccbkgtcexec_iface_v1.h
end_of_record
SF:/home/atcsol/git/PROYECTO_OBDH/uah_exp_freertos_project_2024/asw/components/cchk_fdirmng/include/public/cchk_fdirmng_iface_v1.h
end_of_record
TN:
SF:/home/atcsol/git/PROYECTO_OBDH/uah_exp_freertos_project_2024/asw/dataclasses/CDTCHandler/src/cdtchandler.cpp
FN:15,_ZN11CDTCHandler9HandleIRQEv
FNDA:0,_ZN11CDTCHandler9HandleIRQEv
FN:21,_ZN11CDTCHandlerC2Ev
FNDA:84,_ZN11CDTCHandlerC2Ev
FN:28,_ZN11CDTCHandler16StartUpExecutionEv
FNDA:4,_ZN11CDTCHandler16StartUpExecutionEv
FN:46,_ZN11CDTCHandler16FreeTCDescriptorEv
FNDA:4,_ZN11CDTCHandler16FreeTCDescriptorEv
FN:66,_ZN11CDTCHandler12GetNextUInt8Ev
FNDA:0,_ZN11CDTCHandler12GetNextUInt8Ev
FN:75,_ZN11CDTCHandler13GetNextUInt16Ev
FNDA:0,_ZN11CDTCHandler13GetNextUInt16Ev
FN:83,_ZN11CDTCHandler13GetNextUInt32Ev
FNDA:0,_ZN11CDTCHandler13GetNextUInt32Ev
FN:91,_ZN11CDTCHandler13GetNextUInt64Ev
FNDA:0,_ZN11CDTCHandler13GetNextUInt64Ev
FN:100,_ZN11CDTCHandler11GetNextInt8Ev
FNDA:0,_ZN11CDTCHandler11GetNextInt8Ev
FN:109,_ZN11CDTCHandler12GetNextInt16Ev
FNDA:0,_ZN11CDTCHandler12GetNextInt16Ev
FN:118,_ZN11CDTCHandler12GetNextInt32Ev
FNDA:0,_ZN11CDTCHandler12GetNextInt32Ev
FN:126,_ZN11CDTCHandler12GetNextInt64Ev
FNDA:0,_ZN11CDTCHandler12GetNextInt64Ev
FN:136,_ZN11CDTCHandler12GetNextFloatEv
FNDA:6,_ZN11CDTCHandler12GetNextFloatEv
FN:145,_ZN11CDTCHandler11GetPacketIDEv
FNDA:8,_ZN11CDTCHandler11GetPacketIDEv
FN:159,_ZN11CDTCHandler7GetAPIDEv
FNDA:4,_ZN11CDTCHandler7GetAPIDEv
FN:174,_ZN11CDTCHandler14GetPackSeqCtrlEv
FNDA:8,_ZN11CDTCHandler14GetPackSeqCtrlEv
FN:189,_ZN11CDTCHandler11GetSeqFlagsEv
FNDA:0,_ZN11CDTCHandler11GetSeqFlagsEv
FN:205,_ZN11CDTCHandler11GetSeqCountEv
FNDA:0,_ZN11CDTCHandler11GetSeqCountEv
FN:221,_ZN11CDTCHandler13GetPackLengthEv
FNDA:8,_ZN11CDTCHandler13GetPackLengthEv
FN:234,_ZN11CDTCHandler6GetAckEv
FNDA:0,_ZN11CDTCHandler6GetAckEv
FN:247,_ZN11CDTCHandler7GetTypeEv
FNDA:8,_ZN11CDTCHandler7GetTypeEv
FN:260,_ZN11CDTCHandler10GetSubTypeEv
FNDA:8,_ZN11CDTCHandler10GetSubTypeEv
FN:273,_ZN11CDTCHandler11GetSourceIDEv
FNDA:4,_ZN11CDTCHandler11GetSourceIDEv
FN:286,_ZN11CDTCHandler16GetCalculatedCRCEv
FNDA:4,_ZN11CDTCHandler16GetCalculatedCRCEv
FN:300,_ZN11CDTCHandler18GetPacketErrorCtrlEv
FNDA:4,_ZN11CDTCHandler18GetPacketErrorCtrlEv
DA:15,0
DA:17,0
DA:21,84
DA:23,84
DA:24,84
DA:25,84
DA:26,84
DA:28,4
DA:30,4
DA:32,4
DA:34,4
DA:38,0
DA:39,0
DA:42,4
DA:46,4
DA:48,4
DA:50,4
DA:52,4
DA:56,0
DA:58,4
DA:59,4
DA:61,4
DA:66,0
DA:68,0
DA:70,0
DA:71,0
DA:73,0
DA:75,0
DA:77,0
DA:78,0
DA:79,0
DA:81,0
DA:83,0
DA:85,0
DA:86,0
DA:87,0
DA:89,0
DA:91,0
DA:93,0
DA:94,0
DA:95,0
DA:97,0
DA:100,0
DA:102,0
DA:103,0
DA:104,0
DA:106,0
DA:109,0
DA:111,0
DA:112,0
DA:113,0
DA:115,0
DA:118,0
DA:120,0
DA:121,0
DA:122,0
DA:124,0
DA:126,0
DA:128,0
DA:129,0
DA:130,0
DA:132,0
DA:136,6
DA:138,6
DA:139,6
DA:140,6
DA:142,6
DA:145,8
DA:147,8
DA:149,8
DA:151,8
DA:154,8
DA:159,4
DA:161,4
DA:163,4
DA:165,4
DA:167,4
DA:170,4
DA:174,8
DA:176,8
DA:178,8
DA:180,8
DA:181,8
DA:185,8
DA:189,0
DA:191,0
DA:193,0
DA:195,0
DA:196,0
DA:198,0
DA:201,0
DA:205,0
DA:207,0
DA:209,0
DA:211,0
DA:212,0
DA:214,0
DA:218,0
DA:221,8
DA:223,8
DA:225,8
DA:227,8
DA:231,8
DA:234,0
DA:236,0
DA:238,0
DA:240,0
DA:243,0
DA:247,8
DA:249,8
DA:251,8
DA:253,8
DA:256,8
DA:260,8
DA:262,8
DA:264,8
DA:266,8
DA:269,8
DA:273,4
DA:275,4
DA:277,4
DA:279,4
DA:282,4
DA:286,4
DA:288,4
DA:290,4
DA:292,4
DA:293,4
DA:296,4
DA:300,4
DA:302,4
DA:304,4
DA:306,4
DA:308,4
DA:312,4
end_of_record
SF:/home/atcsol/git/PROYECTO_OBDH/uah_exp_freertos_project_2024/asw/dataclasses/CDTCHandler/include/public/cdtchandler.h
FN:91,_ZN11CDTCHandler14IsValidTCFieldEh
FNDA:6,_ZN11CDTCHandler14IsValidTCFieldEh
DA:91,6
DA:92,6
end_of_record
TN:
SF:/home/atcsol/git/PROYECTO_OBDH/uah_exp_freertos_project_2024/asw/dataclasses/CDTMHandler/src/cdtmhandler.cpp
FN:20,_ZN11CDTMHandlerC2Ehh
FNDA:41,_ZN11CDTMHandlerC2Ehh
FN:42,_ZN11CDTMHandler20SetUInt8AppDataFieldEh
FNDA:1,_ZN11CDTMHandler20SetUInt8AppDataFieldEh
FN:55,_ZN11CDTMHandler21SetUInt16AppDataFieldEt
FNDA:205,_ZN11CDTMHandler21SetUInt16AppDataFieldEt
FN:69,_ZN11CDTMHandler21SetUInt32AppDataFieldEj
FNDA:0,_ZN11CDTMHandler21SetUInt32AppDataFieldEj
FN:84,_ZN11CDTMHandler21SetUInt64AppDataFieldEm
FNDA:0,_ZN11CDTMHandler21SetUInt64AppDataFieldEm
FN:99,_ZN11CDTMHandler19SetInt8AppDataFieldEa
FNDA:0,_ZN11CDTMHandler19SetInt8AppDataFieldEa
FN:113,_ZN11CDTMHandler20SetInt16AppDataFieldEs
FNDA:0,_ZN11CDTMHandler20SetInt16AppDataFieldEs
FN:128,_ZN11CDTMHandler20SetInt32AppDataFieldEi
FNDA:0,_ZN11CDTMHandler20SetInt32AppDataFieldEi
FN:144,_ZN11CDTMHandler20SetInt64AppDataFieldEl
FNDA:0,_ZN11CDTMHandler20SetInt64AppDataFieldEl
FN:159,_ZN11CDTMHandler7CloseTMEv
FNDA:41,_ZN11CDTMHandler7CloseTMEv
FN:192,_ZN11CDTMHandler20SetFloatAppDataFieldEf
FNDA:1,_ZN11CDTMHandler20SetFloatAppDataFieldEf
DA:20,41
DA:23,41
DA:25,41
DA:27,41
DA:28,41
DA:29,41
DA:30,41
DA:32,41
DA:35,0
DA:37,0
DA:40,41
DA:42,1
DA:45,1
DA:47,1
DA:49,1
DA:53,1
DA:55,205
DA:58,205
DA:60,205
DA:61,205
DA:63,205
DA:67,205
DA:69,0
DA:72,0
DA:74,0
DA:75,0
DA:77,0
DA:82,0
DA:84,0
DA:87,0
DA:89,0
DA:90,0
DA:92,0
DA:97,0
DA:99,0
DA:103,0
DA:105,0
DA:107,0
DA:111,0
DA:113,0
DA:116,0
DA:118,0
DA:119,0
DA:121,0
DA:126,0
DA:128,0
DA:131,0
DA:133,0
DA:134,0
DA:136,0
DA:142,0
DA:144,0
DA:147,0
DA:149,0
DA:150,0
DA:152,0
DA:156,0
DA:159,41
DA:161,41
DA:163,41
DA:165,41
DA:166,41
DA:169,41
DA:172,41
DA:176,41
DA:179,41
DA:182,41
DA:184,41
DA:189,41
DA:192,1
DA:195,1
DA:197,1
DA:198,1
DA:199,1
DA:201,1
DA:206,1
end_of_record
TN:
SF:/home/atcsol/git/PROYECTO_OBDH/uah_exp_freertos_project_2024/asw/dataclasses/CDTMList/src/cdtmlist.cpp
FN:11,_ZN8CDTMList5AddTME13tm_descriptor
FNDA:41,_ZN8CDTMList5AddTME13tm_descriptor
FN:27,_ZN8CDTMListC2Ev
FNDA:48,_ZN8CDTMListC2Ev
FN:33,_ZN8CDTMListaSERKS_
FNDA:553,_ZN8CDTMListaSERKS_
DA:11,41
DA:13,41
DA:15,41
DA:17,41
DA:19,41
DA:21,41
DA:24,41
DA:27,48
DA:29,48
DA:31,48
DA:33,553
DA:35,553
DA:37,594
DA:38,41
DA:42,553
end_of_record
TN:
SF:/home/atcsol/git/PROYECTO_OBDH/uah_exp_freertos_project_2024/asw/components/cchk_fdirmng/src/CCHK_FDIRMngS.cpp
FN:13,_ZN12CCHK_FDIRMngC2Ejj15TEDROOMPriorityjPNS_13CEDROOMMemoryE
FNDA:1,_ZN12CCHK_FDIRMngC2Ejj15TEDROOMPriorityjPNS_13CEDROOMMemoryE
FN:49,_ZN12CCHK_FDIRMng12EDROOMConfigEv
FNDA:0,_ZN12CCHK_FDIRMng12EDROOMConfigEv
FN:60,_ZN12CCHK_FDIRMng11EDROOMStartEv
FNDA:1,_ZN12CCHK_FDIRMng11EDROOMStartEv
FN:85,_ZN12CCHK_FDIRMng15EDROOMBehaviourEv
FNDA:1,_ZN12CCHK_FDIRMng15EDROOMBehaviourEv
FN:114,_ZN12CCHK_FDIRMng13CEDROOMMemory9SetMemoryEjP14CEDROOMMessagePbjPN12CEDROOMQueue10CQueueNodeES3_
FNDA:1,_ZN12CCHK_FDIRMng13CEDROOMMemory9SetMemoryEjP14CEDROOMMessagePbjPN12CEDROOMQueue10CQueueNodeES3_
DA:13,1
DA:17,1
DA:24,1
DA:28,1
DA:32,2
DA:38,1
DA:49,0
DA:53,0
DA:60,1
DA:66,1
DA:70,1
DA:72,1
DA:85,1
DA:88,1
DA:89,1
DA:91,0
DA:114,1
DA:122,1
DA:123,1
DA:125,1
DA:128,1
end_of_record
SF:/home/atcsol/git/PROYECTO_OBDH/uah_exp_freertos_project_2024/service_libraries/edroomsl/edroomsl/include/edroomsl/edroomsl.h
FN:115,_ZN11CEDROOMPoolD0Ev
FNDA:0,_ZN11CEDROOMPoolD0Ev
FN:115,_ZN11CEDROOMPoolD2Ev
FNDA:0,_ZN11CEDROOMPoolD2Ev
FN:236,_ZN17CEDROOMMemoryPoolD0Ev
FNDA:0,_ZN17CEDROOMMemoryPoolD0Ev
FN:236,_ZN17CEDROOMMemoryPoolD2Ev
FNDA:0,_ZN17CEDROOMMemoryPoolD2Ev
FN:314,_ZN26CEDROOMProtectedMemoryPoolD0Ev
FNDA:0,_ZN26CEDROOMProtectedMemoryPoolD0Ev
FN:314,_ZN26CEDROOMProtectedMemoryPoolD2Ev
FNDA:0,_ZN26CEDROOMProtectedMemoryPoolD2Ev
DA:115,0
DA:115,0
DA:236,0
DA:236,0
DA:314,0
DA:314,0
end_of_record
SF:/home/atcsol/git/PROYECTO_OBDH/uah_exp_freertos_project_2024/asw/components/cchk_fdirmng/include/public/cchk_fdirmng_iface_v1.h
end_of_record
SF:/home/atcsol/git/PROYECTO_OBDH/uah_exp_freertos_project_2024/service_libraries/edroomsl/edroombp/include/public/edroombp.h
FN:192,_ZN12Pr_SemaphoreD2Ev
FNDA:0,_ZN12Pr_SemaphoreD2Ev
FN:261,_ZN15Pr_SemaphoreBinD2Ev
FNDA:0,_ZN15Pr_SemaphoreBinD2Ev
FN:337,_ZN15Pr_SemaphoreRecD2Ev
FNDA:0,_ZN15Pr_SemaphoreRecD2Ev
FN:533,_ZN7Pr_TaskD2Ev
FNDA:0,_ZN7Pr_TaskD2Ev
DA:192,0
DA:194,0
DA:195,0
DA:261,0
DA:264,0
DA:337,0
DA:533,0
DA:536,0
end_of_record
TN:
SF:/home/atcsol/git/PROYECTO_OBDH/uah_exp_freertos_project_2024/asw/components/cchk_fdirmng/src/CCHK_FDIRMngB.cpp
FN:13,_ZN12CCHK_FDIRMng16EDROOM_CTX_Top_0C2ERS_R8CDTMListR7Pr_TimeRNS0_19CEDROOMPOOLCDTMListE
FNDA:1,_ZN12CCHK_FDIRMng16EDROOM_CTX_Top_0C2ERS_R8CDTMListR7Pr_TimeRNS0_19CEDROOMPOOLCDTMListE
FN:30,_ZN12CCHK_FDIRMng16EDROOM_CTX_Top_0C2ERS0_
FNDA:0,_ZN12CCHK_FDIRMng16EDROOM_CTX_Top_0C2ERS0_
FN:47,_ZN12CCHK_FDIRMng16EDROOM_CTX_Top_024EDROOMSearchContextTransER14TEDROOMTransId
FNDA:0,_ZN12CCHK_FDIRMng16EDROOM_CTX_Top_024EDROOMSearchContextTransER14TEDROOMTransId
FN:71,_ZN12CCHK_FDIRMng16EDROOM_CTX_Top_010FDoHK_FDIREv
FNDA:49,_ZN12CCHK_FDIRMng16EDROOM_CTX_Top_010FDoHK_FDIREv
FN:92,_ZN12CCHK_FDIRMng16EDROOM_CTX_Top_015FExecHK_FDIR_TCEv
FNDA:0,_ZN12CCHK_FDIRMng16EDROOM_CTX_Top_015FExecHK_FDIR_TCEv
FN:108,_ZN12CCHK_FDIRMng16EDROOM_CTX_Top_012FInitHK_FDIREv
FNDA:1,_ZN12CCHK_FDIRMng16EDROOM_CTX_Top_012FInitHK_FDIREv
FN:125,_ZN12CCHK_FDIRMng16EDROOM_CTX_Top_015FInvokeTxTMListEv
FNDA:49,_ZN12CCHK_FDIRMng16EDROOM_CTX_Top_015FInvokeTxTMListEv
FN:141,_ZN12CCHK_FDIRMng16EDROOM_CTX_Top_016FTriggerEvActionEv
FNDA:0,_ZN12CCHK_FDIRMng16EDROOM_CTX_Top_016FTriggerEvActionEv
FN:151,_ZN12CCHK_FDIRMng16EDROOM_CTX_Top_016GPendingEvActionEv
FNDA:49,_ZN12CCHK_FDIRMng16EDROOM_CTX_Top_016GPendingEvActionEv
FN:167,_ZN12CCHK_FDIRMng16EDROOM_CTX_Top_019CEDROOMPOOLCDTMListC2EjP8CDTMListPb
FNDA:1,_ZN12CCHK_FDIRMng16EDROOM_CTX_Top_019CEDROOMPOOLCDTMListC2EjP8CDTMListPb
FN:174,_ZN12CCHK_FDIRMng16EDROOM_CTX_Top_019CEDROOMPOOLCDTMList9AllocDataEv
FNDA:49,_ZN12CCHK_FDIRMng16EDROOM_CTX_Top_019CEDROOMPOOLCDTMList9AllocDataEv
FN:191,_ZN12CCHK_FDIRMng16EDROOM_SUB_Top_0C2ERS_PNS_13CEDROOMMemoryE
FNDA:1,_ZN12CCHK_FDIRMng16EDROOM_SUB_Top_0C2ERS_PNS_13CEDROOMMemoryE
FN:206,_ZN12CCHK_FDIRMng16EDROOM_SUB_Top_015EDROOMBehaviourEv
FNDA:1,_ZN12CCHK_FDIRMng16EDROOM_SUB_Top_015EDROOMBehaviourEv
FN:301,_ZN12CCHK_FDIRMng16EDROOM_SUB_Top_010EDROOMInitEv
FNDA:1,_ZN12CCHK_FDIRMng16EDROOM_SUB_Top_010EDROOMInitEv
FN:318,_ZN12CCHK_FDIRMng16EDROOM_SUB_Top_014EDROOMIArrivalEv
FNDA:1,_ZN12CCHK_FDIRMng16EDROOM_SUB_Top_014EDROOMIArrivalEv
FN:340,_ZN12CCHK_FDIRMng16EDROOM_SUB_Top_018EDROOMReadyArrivalEv
FNDA:50,_ZN12CCHK_FDIRMng16EDROOM_SUB_Top_018EDROOMReadyArrivalEv
DA:13,1
DA:16,1
DA:18,1
DA:19,1
DA:20,1
DA:21,1
DA:22,1
DA:23,1
DA:24,1
DA:25,1
DA:26,1
DA:28,1
DA:30,0
DA:32,0
DA:33,0
DA:34,0
DA:35,0
DA:36,0
DA:37,0
DA:38,0
DA:39,0
DA:40,0
DA:43,0
DA:47,0
DA:51,0
DA:53,0
DA:56,0
DA:58,0
DA:59,0
DA:60,0
DA:61,0
DA:65,0
DA:71,49
DA:75,49
DA:77,49
DA:78,49
DA:80,49
DA:81,49
DA:82,49
DA:83,49
DA:84,49
DA:87,49
DA:88,49
DA:92,0
DA:96,0
DA:100,0
DA:102,0
DA:104,0
DA:108,1
DA:112,1
DA:114,1
DA:115,1
DA:116,1
DA:117,1
DA:120,1
DA:121,1
DA:125,49
DA:129,49
DA:133,49
DA:134,49
DA:136,49
DA:137,49
DA:141,0
DA:145,0
DA:147,0
DA:151,49
DA:156,49
DA:167,1
DA:168,1
DA:170,1
DA:172,1
DA:174,49
DA:176,49
DA:191,1
DA:192,1
DA:194,1
DA:195,1
DA:196,1
DA:197,1
DA:198,1
DA:199,1
DA:202,1
DA:206,1
DA:213,1
DA:220,50
DA:224,1
DA:226,1
DA:228,1
DA:229,1
DA:231,0
DA:233,0
DA:235,0
DA:237,0
DA:238,0
DA:240,49
DA:243,49
DA:245,49
DA:247,49
DA:250,0
DA:253,0
DA:257,0
DA:264,49
DA:268,49
DA:270,49
DA:274,50
DA:278,0
DA:280,0
DA:281,0
DA:284,50
DA:286,50
DA:287,49
DA:291,49
DA:293,49
DA:295,0
DA:301,1
DA:304,1
DA:306,1
DA:318,1
DA:324,1
DA:325,1
DA:326,1
DA:340,50
DA:345,50
DA:350,50
DA:352,49
DA:355,0
DA:357,0
DA:361,0
DA:362,0
DA:363,0
DA:366,0
DA:368,49
DA:370,49
DA:374,49
DA:375,49
DA:376,49
DA:379,49
DA:383,49
DA:385,0
DA:389,49
DA:391,49
end_of_record
SF:/home/atcsol/git/PROYECTO_OBDH/uah_exp_freertos_project_2024/asw/dataclasses/CDTMList/include/public/cdtmlist.h
FN:49,_ZN8CDTMList5ClearEv
FNDA:553,_ZN8CDTMList5ClearEv
DA:49,553
end_of_record
SF:/home/atcsol/git/PROYECTO_OBDH/uah_exp_freertos_project_2024/asw/dataclasses/CDEventList/include/public/cdeventlist.h
FN:70,_ZN11CDEventList14ClearEventListEv
FNDA:0,_ZN11CDEventList14ClearEventListEv
FN:88,_ZN11CDEventListC2Ev
FNDA:54,_ZN11CDEventListC2Ev
DA:70,0
DA:71,0
DA:72,0
DA:74,0
DA:88,54
DA:90,54
DA:91,54
end_of_record
SF:/home/atcsol/git/PROYECTO_OBDH/uah_exp_freertos_project_2024/service_libraries/edroomsl/edroomsl/include/edroomsl/edroomsl.h
FN:115,_ZN11CEDROOMPoolD0Ev
FNDA:0,_ZN11CEDROOMPoolD0Ev
FN:115,_ZN11CEDROOMPoolD2Ev
FNDA:0,_ZN11CEDROOMPoolD2Ev
FN:236,_ZN17CEDROOMMemoryPoolD0Ev
FNDA:0,_ZN17CEDROOMMemoryPoolD0Ev
FN:236,_ZN17CEDROOMMemoryPoolD2Ev
FNDA:0,_ZN17CEDROOMMemoryPoolD2Ev
FN:314,_ZN26CEDROOMProtectedMemoryPoolD0Ev
FNDA:0,_ZN26CEDROOMProtectedMemoryPoolD0Ev
FN:314,_ZN26CEDROOMProtectedMemoryPoolD2Ev
FNDA:0,_ZN26CEDROOMProtectedMemoryPoolD2Ev
DA:115,0
DA:115,0
DA:236,0
DA:236,0
DA:314,0
DA:314,0
end_of_record
SF:/home/atcsol/git/PROYECTO_OBDH/uah_exp_freertos_project_2024/asw/components/cchk_fdirmng/include/public/cchk_fdirmng_iface_v1.h
FN:261,_ZN12CCHK_FDIRMng16EDROOM_CTX_Top_016EDROOMNewMessageEv
FNDA:50,_ZN12CCHK_FDIRMng16EDROOM_CTX_Top_016EDROOMNewMessageEv
DA:261,50
DA:262,50
end_of_record
SF:/home/atcsol/git/PROYECTO_OBDH/uah_exp_freertos_project_2024/service_libraries/edroomsl/edroombp/include/public/edroombp.h
FN:192,_ZN12Pr_SemaphoreD2Ev
FNDA:0,_ZN12Pr_SemaphoreD2Ev
FN:337,_ZN15Pr_SemaphoreRecD2Ev
FNDA:0,_ZN15Pr_SemaphoreRecD2Ev
DA:192,0
DA:194,0
DA:195,0
DA:337,0
end_of_record
TN:
SF:/home/atcsol/git/PROYECTO_OBDH/uah_exp_freertos_project_2024/service_libraries/edroomsl/edroombp/include/public/edroombp.h
FN:192,_ZN12Pr_SemaphoreD2Ev
FNDA:0,_ZN12Pr_SemaphoreD2Ev
FN:337,_ZN15Pr_SemaphoreRecD2Ev
FNDA:0,_ZN15Pr_SemaphoreRecD2Ev
DA:192,0
DA:194,0
DA:195,0
DA:337,0
end_of_record
SF:/home/atcsol/git/PROYECTO_OBDH/uah_exp_freertos_project_2024/service_libraries/edroomsl/edroomsl/include/edroomsl/edroomsl.h
FN:115,_ZN11CEDROOMPoolD0Ev
FNDA:0,_ZN11CEDROOMPoolD0Ev
FN:115,_ZN11CEDROOMPoolD2Ev
FNDA:0,_ZN11CEDROOMPoolD2Ev
FN:236,_ZN17CEDROOMMemoryPoolD0Ev
FNDA:0,_ZN17CEDROOMMemoryPoolD0Ev
FN:236,_ZN17CEDROOMMemoryPoolD2Ev
FNDA:0,_ZN17CEDROOMMemoryPoolD2Ev
FN:314,_ZN26CEDROOMProtectedMemoryPoolD0Ev
FNDA:0,_ZN26CEDROOMProtectedMemoryPoolD0Ev
FN:314,_ZN26CEDROOMProtectedMemoryPoolD2Ev
FNDA:0,_ZN26CEDROOMProtectedMemoryPoolD2Ev
DA:115,0
DA:115,0
DA:236,0
DA:236,0
DA:314,0
DA:314,0
end_of_record
SF:/home/atcsol/git/PROYECTO_OBDH/uah_exp_freertos_project_2024/asw/dataclasses/CDTMList/include/public/cdtmlist.h
FN:49,_ZN8CDTMList5ClearEv
FNDA:0,_ZN8CDTMList5ClearEv
DA:49,0
end_of_record
SF:/home/atcsol/git/PROYECTO_OBDH/uah_exp_freertos_project_2024/asw/dataclasses/CDEventList/include/public/cdeventlist.h
FN:70,_ZN11CDEventList14ClearEventListEv
FNDA:0,_ZN11CDEventList14ClearEventListEv
FN:88,_ZN11CDEventListC2Ev
FNDA:0,_ZN11CDEventListC2Ev
DA:70,0
DA:71,0
DA:72,0
DA:74,0
DA:88,0
DA:90,0
DA:91,0
end_of_record
SF:/home/atcsol/git/PROYECTO_OBDH/uah_exp_freertos_project_2024/asw/components/ccguidance/include/public/ccguidance_iface_v1.h
FN:259,_ZN10CCGuidance16EDROOM_CTX_Top_016EDROOMNewMessageEv
FNDA:500,_ZN10CCGuidance16EDROOM_CTX_Top_016EDROOMNewMessageEv
DA:259,500
DA:260,500
end_of_record
SF:/home/atcsol/git/PROYECTO_OBDH/uah_exp_freertos_project_2024/asw/components/ccguidance/src/CCGuidanceB.cpp
FN:13,_ZN10CCGuidance16EDROOM_CTX_Top_0C2ERS_R8CDTMListR7Pr_TimeRNS0_19CEDROOMPOOLCDTMListE
FNDA:1,_ZN10CCGuidance16EDROOM_CTX_Top_0C2ERS_R8CDTMListR7Pr_TimeRNS0_19CEDROOMPOOLCDTMListE
FN:30,_ZN10CCGuidance16EDROOM_CTX_Top_0C2ERS0_
FNDA:0,_ZN10CCGuidance16EDROOM_CTX_Top_0C2ERS0_
FN:47,_ZN10CCGuidance16EDROOM_CTX_Top_024EDROOMSearchContextTransER14TEDROOMTransId
FNDA:0,_ZN10CCGuidance16EDROOM_CTX_Top_024EDROOMSearchContextTransER14TEDROOMTransId
FN:71,_ZN10CCGuidance16EDROOM_CTX_Top_013FExecGuidanceEv
FNDA:3,_ZN10CCGuidance16EDROOM_CTX_Top_013FExecGuidanceEv
FN:88,_ZN10CCGuidance16EDROOM_CTX_Top_016FGuidanceControlEv
FNDA:496,_ZN10CCGuidance16EDROOM_CTX_Top_016FGuidanceControlEv
FN:109,_ZN10CCGuidance16EDROOM_CTX_Top_013FInitGuidanceEv
FNDA:1,_ZN10CCGuidance16EDROOM_CTX_Top_013FInitGuidanceEv
FN:124,_ZN10CCGuidance16EDROOM_CTX_Top_015FInvokeTxTMListEv
FNDA:499,_ZN10CCGuidance16EDROOM_CTX_Top_015FInvokeTxTMListEv
FN:145,_ZN10CCGuidance16EDROOM_CTX_Top_019CEDROOMPOOLCDTMListC2EjP8CDTMListPb
FNDA:1,_ZN10CCGuidance16EDROOM_CTX_Top_019CEDROOMPOOLCDTMListC2EjP8CDTMListPb
FN:152,_ZN10CCGuidance16EDROOM_CTX_Top_019CEDROOMPOOLCDTMList9AllocDataEv
FNDA:499,_ZN10CCGuidance16EDROOM_CTX_Top_019CEDROOMPOOLCDTMList9AllocDataEv
FN:169,_ZN10CCGuidance16EDROOM_SUB_Top_0C2ERS_PNS_13CEDROOMMemoryE
FNDA:1,_ZN10CCGuidance16EDROOM_SUB_Top_0C2ERS_PNS_13CEDROOMMemoryE
FN:184,_ZN10CCGuidance16EDROOM_SUB_Top_015EDROOMBehaviourEv
FNDA:1,_ZN10CCGuidance16EDROOM_SUB_Top_015EDROOMBehaviourEv
FN:256,_ZN10CCGuidance16EDROOM_SUB_Top_010EDROOMInitEv
FNDA:1,_ZN10CCGuidance16EDROOM_SUB_Top_010EDROOMInitEv
FN:273,_ZN10CCGuidance16EDROOM_SUB_Top_014EDROOMIArrivalEv
FNDA:1,_ZN10CCGuidance16EDROOM_SUB_Top_014EDROOMIArrivalEv
FN:295,_ZN10CCGuidance16EDROOM_SUB_Top_018EDROOMReadyArrivalEv
FNDA:500,_ZN10CCGuidance16EDROOM_SUB_Top_018EDROOMReadyArrivalEv
DA:13,1
DA:16,1
DA:18,1
DA:19,1
DA:20,1
DA:21,1
DA:22,1
DA:23,1
DA:24,1
DA:25,1
DA:26,1
DA:28,1
DA:30,0
DA:32,0
DA:33,0
DA:34,0
DA:35,0
DA:36,0
DA:37,0
DA:38,0
DA:39,0
DA:40,0
DA:43,0
DA:47,0
DA:51,0
DA:53,0
DA:56,0
DA:58,0
DA:59,0
DA:60,0
DA:61,0
DA:65,0
DA:71,3
DA:75,3
DA:80,3
DA:82,3
DA:84,3
DA:88,496
DA:92,496
DA:99,496
DA:100,496
DA:101,496
DA:102,496
DA:104,496
DA:105,496
DA:109,1
DA:113,1
DA:114,1
DA:115,1
DA:116,1
DA:119,1
DA:120,1
DA:124,499
DA:128,499
DA:133,499
DA:134,499
DA:136,499
DA:137,499
DA:145,1
DA:146,1
DA:148,1
DA:150,1
DA:152,499
DA:154,499
DA:169,1
DA:170,1
DA:172,1
DA:173,1
DA:174,1
DA:175,1
DA:176,1
DA:177,1
DA:180,1
DA:184,1
DA:191,1
DA:198,500
DA:202,496
DA:204,496
DA:206,496
DA:208,496
DA:209,496
DA:211,3
DA:213,3
DA:215,3
DA:217,3
DA:218,3
DA:220,1
DA:222,1
DA:224,1
DA:225,1
DA:229,500
DA:233,0
DA:235,0
DA:236,0
DA:239,500
DA:241,500
DA:242,499
DA:246,499
DA:248,499
DA:250,0
DA:256,1
DA:259,1
DA:261,1
DA:273,1
DA:279,1
DA:280,1
DA:281,1
DA:295,500
DA:300,500
DA:305,500
DA:307,499
DA:310,496
DA:312,496
DA:316,496
DA:317,496
DA:318,496
DA:321,496
DA:323,3
DA:325,3
DA:329,3
DA:330,3
DA:331,3
DA:334,3
DA:338,499
DA:340,0
DA:344,499
DA:346,499
end_of_record
TN:
SF:/home/atcsol/git/PROYECTO_OBDH/uah_exp_freertos_project_2024/asw/components/ccguidance/src/CCGuidanceS.cpp
FN:13,_ZN10CCGuidanceC2Ejj15TEDROOMPriorityjPNS_13CEDROOMMemoryE
FNDA:1,_ZN10CCGuidanceC2Ejj15TEDROOMPriorityjPNS_13CEDROOMMemoryE
FN:49,_ZN10CCGuidance12EDROOMConfigEv
FNDA:0,_ZN10CCGuidance12EDROOMConfigEv
FN:60,_ZN10CCGuidance11EDROOMStartEv
FNDA:1,_ZN10CCGuidance11EDROOMStartEv
FN:85,_ZN10CCGuidance15EDROOMBehaviourEv
FNDA:1,_ZN10CCGuidance15EDROOMBehaviourEv
FN:114,_ZN10CCGuidance13CEDROOMMemory9SetMemoryEjP14CEDROOMMessagePbjPN12CEDROOMQueue10CQueueNodeES3_
FNDA:1,_ZN10CCGuidance13CEDROOMMemory9SetMemoryEjP14CEDROOMMessagePbjPN12CEDROOMQueue10CQueueNodeES3_
DA:13,1
DA:17,1
DA:24,1
DA:28,1
DA:32,2
DA:38,1
DA:49,0
DA:53,0
DA:60,1
DA:66,1
DA:70,1
DA:72,1
DA:85,1
DA:88,1
DA:89,1
DA:91,0
DA:114,1
DA:122,1
DA:123,1
DA:125,1
DA:128,1
end_of_record
SF:/home/atcsol/git/PROYECTO_OBDH/uah_exp_freertos_project_2024/service_libraries/edroomsl/edroomsl/include/edroomsl/edroomsl.h
FN:115,_ZN11CEDROOMPoolD0Ev
FNDA:0,_ZN11CEDROOMPoolD0Ev
FN:115,_ZN11CEDROOMPoolD2Ev
FNDA:0,_ZN11CEDROOMPoolD2Ev
FN:236,_ZN17CEDROOMMemoryPoolD0Ev
FNDA:0,_ZN17CEDROOMMemoryPoolD0Ev
FN:236,_ZN17CEDROOMMemoryPoolD2Ev
FNDA:0,_ZN17CEDROOMMemoryPoolD2Ev
FN:314,_ZN26CEDROOMProtectedMemoryPoolD0Ev
FNDA:0,_ZN26CEDROOMProtectedMemoryPoolD0Ev
FN:314,_ZN26CEDROOMProtectedMemoryPoolD2Ev
FNDA:0,_ZN26CEDROOMProtectedMemoryPoolD2Ev
DA:115,0
DA:115,0
DA:236,0
DA:236,0
DA:314,0
DA:314,0
end_of_record
SF:/home/atcsol/git/PROYECTO_OBDH/uah_exp_freertos_project_2024/service_libraries/edroomsl/edroombp/include/public/edroombp.h
FN:192,_ZN12Pr_SemaphoreD2Ev
FNDA:0,_ZN12Pr_SemaphoreD2Ev
FN:261,_ZN15Pr_SemaphoreBinD2Ev
FNDA:0,_ZN15Pr_SemaphoreBinD2Ev
FN:337,_ZN15Pr_SemaphoreRecD2Ev
FNDA:0,_ZN15Pr_SemaphoreRecD2Ev
FN:533,_ZN7Pr_TaskD2Ev
FNDA:0,_ZN7Pr_TaskD2Ev
DA:192,0
DA:194,0
DA:195,0
DA:261,0
DA:264,0
DA:337,0
DA:533,0
DA:536,0
end_of_record
SF:/home/atcsol/git/PROYECTO_OBDH/uah_exp_freertos_project_2024/asw/components/ccguidance/include/public/ccguidance_iface_v1.h
end_of_record
TN:
SF:/home/atcsol/git/PROYECTO_OBDH/uah_exp_freertos_project_2024/asw/dataclasses/CDEventList/include/public/cdeventlist.h
FN:70,_ZN11CDEventList14ClearEventListEv
FNDA:0,_ZN11CDEventList14ClearEventListEv
FN:88,_ZN11CDEventListC2Ev
FNDA:0,_ZN11CDEventListC2Ev
DA:70,0
DA:71,0
DA:72,0
DA:74,0
DA:88,0
DA:90,0
DA:91,0
end_of_record
SF:/home/atcsol/git/PROYECTO_OBDH/uah_exp_freertos_project_2024/asw/dataclasses/CDTMList/include/public/cdtmlist.h
FN:49,_ZN8CDTMList5ClearEv
FNDA:0,_ZN8CDTMList5ClearEv
DA:49,0
end_of_record
SF:/home/atcsol/git/PROYECTO_OBDH/uah_exp_freertos_project_2024/asw/components/ccbkgtcexec/src/CCBKGTCExecB.cpp
FN:13,_ZN11CCBKGTCExec16EDROOM_CTX_Top_0C2ERS_R11CDEventListR8CDTMListRNS0_19CEDROOMPOOLCDTMListE
FNDA:1,_ZN11CCBKGTCExec16EDROOM_CTX_Top_0C2ERS_R11CDEventListR8CDTMListRNS0_19CEDROOMPOOLCDTMListE
FN:29,_ZN11CCBKGTCExec16EDROOM_CTX_Top_0C2ERS0_
FNDA:0,_ZN11CCBKGTCExec16EDROOM_CTX_Top_0C2ERS0_
FN:45,_ZN11CCBKGTCExec16EDROOM_CTX_Top_024EDROOMSearchContextTransER14TEDROOMTransId
FNDA:0,_ZN11CCBKGTCExec16EDROOM_CTX_Top_024EDROOMSearchContextTransER14TEDROOMTransId
FN:69,_ZN11CCBKGTCExec16EDROOM_CTX_Top_010FExecBKGTCEv
FNDA:0,_ZN11CCBKGTCExec16EDROOM_CTX_Top_010FExecBKGTCEv
FN:85,_ZN11CCBKGTCExec16EDROOM_CTX_Top_09FTxTMListEv
FNDA:0,_ZN11CCBKGTCExec16EDROOM_CTX_Top_09FTxTMListEv
FN:105,_ZN11CCBKGTCExec16EDROOM_CTX_Top_019CEDROOMPOOLCDTMListC2EjP8CDTMListPb
FNDA:1,_ZN11CCBKGTCExec16EDROOM_CTX_Top_019CEDROOMPOOLCDTMListC2EjP8CDTMListPb
FN:112,_ZN11CCBKGTCExec16EDROOM_CTX_Top_019CEDROOMPOOLCDTMList9AllocDataEv
FNDA:0,_ZN11CCBKGTCExec16EDROOM_CTX_Top_019CEDROOMPOOLCDTMList9AllocDataEv
FN:129,_ZN11CCBKGTCExec16EDROOM_SUB_Top_0C2ERS_PNS_13CEDROOMMemoryE
FNDA:1,_ZN11CCBKGTCExec16EDROOM_SUB_Top_0C2ERS_PNS_13CEDROOMMemoryE
FN:144,_ZN11CCBKGTCExec16EDROOM_SUB_Top_015EDROOMBehaviourEv
FNDA:1,_ZN11CCBKGTCExec16EDROOM_SUB_Top_015EDROOMBehaviourEv
FN:205,_ZN11CCBKGTCExec16EDROOM_SUB_Top_010EDROOMInitEv
FNDA:1,_ZN11CCBKGTCExec16EDROOM_SUB_Top_010EDROOMInitEv
FN:222,_ZN11CCBKGTCExec16EDROOM_SUB_Top_014EDROOMIArrivalEv
FNDA:1,_ZN11CCBKGTCExec16EDROOM_SUB_Top_014EDROOMIArrivalEv
FN:244,_ZN11CCBKGTCExec16EDROOM_SUB_Top_018EDROOMReadyArrivalEv
FNDA:1,_ZN11CCBKGTCExec16EDROOM_SUB_Top_018EDROOMReadyArrivalEv
DA:13,1
DA:16,1
DA:18,1
DA:19,1
DA:20,1
DA:21,1
DA:22,1
DA:23,1
DA:24,1
DA:25,1
DA:27,1
DA:29,0
DA:31,0
DA:32,0
DA:33,0
DA:34,0
DA:35,0
DA:36,0
DA:37,0
DA:38,0
DA:41,0
DA:45,0
DA:49,0
DA:51,0
DA:54,0
DA:56,0
DA:57,0
DA:58,0
DA:59,0
DA:63,0
DA:69,0
DA:73,0
DA:78,0
DA:79,0
DA:81,0
DA:85,0
DA:89,0
DA:93,0
DA:94,0
DA:96,0
DA:97,0
DA:105,1
DA:106,1
DA:108,1
DA:110,1
DA:112,0
DA:114,0
DA:129,1
DA:130,1
DA:132,1
DA:133,1
DA:134,1
DA:135,1
DA:136,1
DA:137,1
DA:140,1
DA:144,1
DA:151,1
DA:158,1
DA:162,1
DA:164,1
DA:165,1
DA:167,0
DA:169,0
DA:171,0
DA:173,0
DA:174,0
DA:178,1
DA:182,0
DA:184,0
DA:185,0
DA:188,1
DA:190,1
DA:191,0
DA:195,0
DA:197,0
DA:199,0
DA:205,1
DA:208,1
DA:210,1
DA:222,1
DA:228,1
DA:229,1
DA:230,1
DA:244,1
DA:249,1
DA:254,1
DA:256,0
DA:259,0
DA:261,0
DA:265,0
DA:266,0
DA:267,0
DA:270,0
DA:274,0
DA:276,0
DA:280,0
DA:282,0
end_of_record
SF:/home/atcsol/git/PROYECTO_OBDH/uah_exp_freertos_project_2024/service_libraries/edroomsl/edroombp/include/public/edroombp.h
FN:192,_ZN12Pr_SemaphoreD2Ev
FNDA:0,_ZN12Pr_SemaphoreD2Ev
FN:337,_ZN15Pr_SemaphoreRecD2Ev
FNDA:0,_ZN15Pr_SemaphoreRecD2Ev
DA:192,0
DA:194,0
DA:195,0
DA:337,0
end_of_record
SF:/home/atcsol/git/PROYECTO_OBDH/uah_exp_freertos_project_2024/asw/components/ccbkgtcexec/include/public/ccbkgtcexec_iface_v1.h
FN:232,_ZN11CCBKGTCExec16EDROOM_CTX_Top_016EDROOMNewMessageEv
FNDA:1,_ZN11CCBKGTCExec16EDROOM_CTX_Top_016EDROOMNewMessageEv
DA:232,1
DA:233,1
end_of_record
SF:/home/atcsol/git/PROYECTO_OBDH/uah_exp_freertos_project_2024/service_libraries/edroomsl/edroomsl/include/edroomsl/edroomsl.h
FN:115,_ZN11CEDROOMPoolD0Ev
FNDA:0,_ZN11CEDROOMPoolD0Ev
FN:115,_ZN11CEDROOMPoolD2Ev
FNDA:0,_ZN11CEDROOMPoolD2Ev
FN:236,_ZN17CEDROOMMemoryPoolD0Ev
FNDA:0,_ZN17CEDROOMMemoryPoolD0Ev
FN:236,_ZN17CEDROOMMemoryPoolD2Ev
FNDA:0,_ZN17CEDROOMMemoryPoolD2Ev
FN:314,_ZN26CEDROOMProtectedMemoryPoolD0Ev
FNDA:0,_ZN26CEDROOMProtectedMemoryPoolD0Ev
FN:314,_ZN26CEDROOMProtectedMemoryPoolD2Ev
FNDA:0,_ZN26CEDROOMProtectedMemoryPoolD2Ev
DA:115,0
DA:115,0
DA:236,0
DA:236,0
DA:314,0
DA:314,0
end_of_record
TN:
SF:/home/atcsol/git/PROYECTO_OBDH/uah_exp_freertos_project_2024/asw/components/ccbkgtcexec/src/CCBKGTCExecS.cpp
FN:13,_ZN11CCBKGTCExecC2Ejj15TEDROOMPriorityjPNS_13CEDROOMMemoryE
FNDA:1,_ZN11CCBKGTCExecC2Ejj15TEDROOMPriorityjPNS_13CEDROOMMemoryE
FN:41,_ZN11CCBKGTCExec12EDROOMConfigEv
FNDA:0,_ZN11CCBKGTCExec12EDROOMConfigEv
FN:52,_ZN11CCBKGTCExec11EDROOMStartEv
FNDA:1,_ZN11CCBKGTCExec11EDROOMStartEv
FN:73,_ZN11CCBKGTCExec15EDROOMBehaviourEv
FNDA:1,_ZN11CCBKGTCExec15EDROOMBehaviourEv
FN:102,_ZN11CCBKGTCExec13CEDROOMMemory9SetMemoryEjP14CEDROOMMessagePbjPN12CEDROOMQueue10CQueueNodeES3_
FNDA:1,_ZN11CCBKGTCExec13CEDROOMMemory9SetMemoryEjP14CEDROOMMessagePbjPN12CEDROOMQueue10CQueueNodeES3_
DA:13,1
DA:17,1
DA:24,1
DA:30,1
DA:41,0
DA:45,0
DA:52,1
DA:58,1
DA:60,1
DA:73,1
DA:76,1
DA:77,1
DA:79,0
DA:102,1
DA:110,1
DA:111,1
DA:114,1
end_of_record
SF:/home/atcsol/git/PROYECTO_OBDH/uah_exp_freertos_project_2024/service_libraries/edroomsl/edroombp/include/public/edroombp.h
FN:192,_ZN12Pr_SemaphoreD2Ev
FNDA:0,_ZN12Pr_SemaphoreD2Ev
FN:337,_ZN15Pr_SemaphoreRecD2Ev
FNDA:0,_ZN15Pr_SemaphoreRecD2Ev
DA:192,0
DA:194,0
DA:195,0
DA:337,0
end_of_record
SF:/home/atcsol/git/PROYECTO_OBDH/uah_exp_freertos_project_2024/asw/components/ccbkgtcexec/include/public/ccbkgtcexec_iface_v1.h
end_of_record
SF:/home/atcsol/git/PROYECTO_OBDH/uah_exp_freertos_project_2024/service_libraries/edroomsl/edroomsl/include/edroomsl/edroomsl.h
FN:115,_ZN11CEDROOMPoolD0Ev
FNDA:0,_ZN11CEDROOMPoolD0Ev
FN:115,_ZN11CEDROOMPoolD2Ev
FNDA:0,_ZN11CEDROOMPoolD2Ev
FN:236,_ZN17CEDROOMMemoryPoolD0Ev
FNDA:0,_ZN17CEDROOMMemoryPoolD0Ev
FN:236,_ZN17CEDROOMMemoryPoolD2Ev
FNDA:0,_ZN17CEDROOMMemoryPoolD2Ev
FN:314,_ZN26CEDROOMProtectedMemoryPoolD0Ev
FNDA:0,_ZN26CEDROOMProtectedMemoryPoolD0Ev
FN:314,_ZN26CEDROOMProtectedMemoryPoolD2Ev
FNDA:0,_ZN26CEDROOMProtectedMemoryPoolD2Ev
DA:115,0
DA:115,0
DA:236,0
DA:236,0
DA:314,0
DA:314,0
end_of_record
TN:
SF:/home/atcsol/git/PROYECTO_OBDH/uah_exp_freertos_project_2024/service_libraries/edroomsl/edroomsl/include/edroomsl/edroomsl.h
FN:115,_ZN11CEDROOMPoolD0Ev
FNDA:0,_ZN11CEDROOMPoolD0Ev
FN:115,_ZN11CEDROOMPoolD2Ev
FNDA:0,_ZN11CEDROOMPoolD2Ev
FN:236,_ZN17CEDROOMMemoryPoolD0Ev
FNDA:0,_ZN17CEDROOMMemoryPoolD0Ev
FN:236,_ZN17CEDROOMMemoryPoolD2Ev
FNDA:0,_ZN17CEDROOMMemoryPoolD2Ev
FN:314,_ZN26CEDROOMProtectedMemoryPoolD0Ev
FNDA:0,_ZN26CEDROOMProtectedMemoryPoolD0Ev
FN:314,_ZN26CEDROOMProtectedMemoryPoolD2Ev
FNDA:0,_ZN26CEDROOMProtectedMemoryPoolD2Ev
DA:115,0
DA:115,0
DA:236,0
DA:236,0
DA:314,0
DA:314,0
end_of_record
SF:/home/atcsol/git/PROYECTO_OBDH/uah_exp_freertos_project_2024/service_libraries/edroomsl/edroombp/include/public/edroombp.h
FN:192,_ZN12Pr_SemaphoreD2Ev
FNDA:0,_ZN12Pr_SemaphoreD2Ev
FN:261,_ZN15Pr_SemaphoreBinD2Ev
FNDA:0,_ZN15Pr_SemaphoreBinD2Ev
FN:337,_ZN15Pr_SemaphoreRecD2Ev
FNDA:0,_ZN15Pr_SemaphoreRecD2Ev
FN:533,_ZN7Pr_TaskD2Ev
FNDA:0,_ZN7Pr_TaskD2Ev
DA:192,0
DA:194,0
DA:195,0
DA:261,0
DA:264,0
DA:337,0
DA:533,0
DA:536,0
end_of_record
SF:/home/atcsol/git/PROYECTO_OBDH/uah_exp_freertos_project_2024/asw/dataclasses/CDEvAction/include/public/cdevaction.h
FN:29,_ZN10CDEvActionC2Ev
FNDA:0,_ZN10CDEvActionC2Ev
DA:29,0
DA:30,0
DA:31,0
DA:33,0
end_of_record
SF:/home/atcsol/git/PROYECTO_OBDH/uah_exp_freertos_project_2024/asw/components/ccexplorermanager/include/public/ccexplorermanager_iface_v1.h
FN:147,_ZN17CCExplorerManager26CEDROOMPOOLIRQ10CDEvActionC2Ev
FNDA:1,_ZN17CCExplorerManager26CEDROOMPOOLIRQ10CDEvActionC2Ev
FN:149,_ZN17CCExplorerManager26CEDROOMPOOLIRQ10CDEvAction9AllocDataEv
FNDA:0,_ZN17CCExplorerManager26CEDROOMPOOLIRQ10CDEvAction9AllocDataEv
FN:188,_ZN17CCExplorerManager27CEDROOMPOOLIRQ18CDTCHandlerC2Ev
FNDA:1,_ZN17CCExplorerManager27CEDROOMPOOLIRQ18CDTCHandlerC2Ev
FN:190,_ZN17CCExplorerManager27CEDROOMPOOLIRQ18CDTCHandler9AllocDataEv
FNDA:4,_ZN17CCExplorerManager27CEDROOMPOOLIRQ18CDTCHandler9AllocDataEv
DA:147,12
DA:149,0
DA:188,12
DA:190,4
end_of_record
SF:/home/atcsol/git/PROYECTO_OBDH/uah_exp_freertos_project_2024/asw/components/ccexplorermanager/src/CCExplorerManagerS.cpp
FN:23,_ZN17CCExplorerManager33EDROOMIRQ10HandlerTopHalfFunctionEv
FNDA:0,_ZN17CCExplorerManager33EDROOMIRQ10HandlerTopHalfFunctionEv
FN:35,_ZN17CCExplorerManager18EDROOMIRQ10HandlerEv
FNDA:0,_ZN17CCExplorerManager18EDROOMIRQ10HandlerEv
FN:45,_ZN17CCExplorerManager22EDROOMIRQ10IdleHandlerEv
FNDA:0,_ZN17CCExplorerManager22EDROOMIRQ10IdleHandlerEv
FN:53,_ZN17CCExplorerManager25EDROOMIRQ10BottomHalfTaskEv
FNDA:1,_ZN17CCExplorerManager25EDROOMIRQ10BottomHalfTaskEv
FN:130,_ZN17CCExplorerManager33EDROOMIRQ18HandlerTopHalfFunctionEv
FNDA:0,_ZN17CCExplorerManager33EDROOMIRQ18HandlerTopHalfFunctionEv
FN:152,_ZN17CCExplorerManager18EDROOMIRQ18HandlerEv
FNDA:0,_ZN17CCExplorerManager18EDROOMIRQ18HandlerEv
FN:162,_ZN17CCExplorerManager22EDROOMIRQ18IdleHandlerEv
FNDA:0,_ZN17CCExplorerManager22EDROOMIRQ18IdleHandlerEv
FN:170,_ZN17CCExplorerManager25EDROOMIRQ18BottomHalfTaskEv
FNDA:1,_ZN17CCExplorerManager25EDROOMIRQ18BottomHalfTaskEv
FN:231,_ZN17CCExplorerManagerC2Ejj15TEDROOMPriorityjPNS_13CEDROOMMemoryE
FNDA:1,_ZN17CCExplorerManagerC2Ejj15TEDROOMPriorityjPNS_13CEDROOMMemoryE
FN:267,_ZN17CCExplorerManager12EDROOMConfigEv
FNDA:0,_ZN17CCExplorerManager12EDROOMConfigEv
FN:278,_ZN17CCExplorerManager11EDROOMStartEv
FNDA:1,_ZN17CCExplorerManager11EDROOMStartEv
FN:299,_ZN17CCExplorerManager15EDROOMBehaviourEv
FNDA:1,_ZN17CCExplorerManager15EDROOMBehaviourEv
FN:336,_ZN17CCExplorerManager13CEDROOMMemory9SetMemoryEjP14CEDROOMMessagePbjPN12CEDROOMQueue10CQueueNodeES3_
FNDA:1,_ZN17CCExplorerManager13CEDROOMMemory9SetMemoryEjP14CEDROOMMessagePbjPN12CEDROOMQueue10CQueueNodeES3_
DA:23,0
DA:25,0
DA:26,0
DA:27,0
DA:29,0
DA:35,0
DA:37,0
DA:39,0
DA:45,0
DA:47,0
DA:53,1
DA:55,1
DA:60,1
DA:62,0
DA:64,0
DA:74,0
DA:82,0
DA:85,0
DA:87,0
DA:89,0
DA:92,0
DA:94,0
DA:96,0
DA:98,0
DA:130,0
DA:132,0
DA:143,0
DA:144,0
DA:146,0
DA:152,0
DA:154,0
DA:156,0
DA:162,0
DA:164,0
DA:170,1
DA:172,1
DA:177,5
DA:179,4
DA:181,4
DA:189,4
DA:195,4
DA:198,4
DA:200,4
DA:202,4
DA:205,4
DA:207,0
DA:209,4
DA:211,0
DA:231,1
DA:235,1
DA:242,1
DA:246,1
DA:250,2
DA:256,1
DA:267,0
DA:271,0
DA:278,1
DA:284,1
DA:286,1
DA:299,1
DA:302,1
DA:303,1
DA:308,0
DA:312,0
DA:313,0
DA:336,1
DA:344,1
DA:345,1
DA:348,1
end_of_record
TN:
SF:/home/atcsol/git/PROYECTO_OBDH/uah_exp_freertos_project_2024/asw/components/ccexplorermanager/src/CCExplorerManagerB.cpp
FN:13,_ZN17CCExplorerManager16EDROOM_CTX_Top_0C2ERS_R11CDEventListR11CDTCHandlerR8CDTMListRNS0_19CEDROOMPOOLCDTMListERNS0_22CEDROOMPOOLCDTCHandlerE
FNDA:1,_ZN17CCExplorerManager16EDROOM_CTX_Top_0C2ERS_R11CDEventListR11CDTCHandlerR8CDTMListRNS0_19CEDROOMPOOLCDTMListERNS0_22CEDROOMPOOLCDTCHandlerE
FN:37,_ZN17CCExplorerManager16EDROOM_CTX_Top_0C2ERS0_
FNDA:0,_ZN17CCExplorerManager16EDROOM_CTX_Top_0C2ERS0_
FN:59,_ZN17CCExplorerManager16EDROOM_CTX_Top_024EDROOMSearchContextTransER14TEDROOMTransId
FNDA:0,_ZN17CCExplorerManager16EDROOM_CTX_Top_024EDROOMSearchContextTransER14TEDROOMTransId
FN:83,_ZN17CCExplorerManager16EDROOM_CTX_Top_011FExecPrioTCEv
FNDA:1,_ZN17CCExplorerManager16EDROOM_CTX_Top_011FExecPrioTCEv
FN:93,_ZN17CCExplorerManager16EDROOM_CTX_Top_013FFwdHK_FDIRTCEv
FNDA:0,_ZN17CCExplorerManager16EDROOM_CTX_Top_013FFwdHK_FDIRTCEv
FN:108,_ZN17CCExplorerManager16EDROOM_CTX_Top_015FFwdToBKGTCExecEv
FNDA:0,_ZN17CCExplorerManager16EDROOM_CTX_Top_015FFwdToBKGTCExecEv
FN:123,_ZN17CCExplorerManager16EDROOM_CTX_Top_012FGetEvActionEv
FNDA:0,_ZN17CCExplorerManager16EDROOM_CTX_Top_012FGetEvActionEv
FN:139,_ZN17CCExplorerManager16EDROOM_CTX_Top_06FGetTCEv
FNDA:4,_ZN17CCExplorerManager16EDROOM_CTX_Top_06FGetTCEv
FN:155,_ZN17CCExplorerManager16EDROOM_CTX_Top_05FInitEv
FNDA:1,_ZN17CCExplorerManager16EDROOM_CTX_Top_05FInitEv
FN:170,_ZN17CCExplorerManager16EDROOM_CTX_Top_015FInvokeTxTMListEv
FNDA:5,_ZN17CCExplorerManager16EDROOM_CTX_Top_015FInvokeTxTMListEv
FN:186,_ZN17CCExplorerManager16EDROOM_CTX_Top_017FMngTCAcceptationEv
FNDA:4,_ZN17CCExplorerManager16EDROOM_CTX_Top_017FMngTCAcceptationEv
FN:197,_ZN17CCExplorerManager16EDROOM_CTX_Top_015FMngTCRejectionEv
FNDA:0,_ZN17CCExplorerManager16EDROOM_CTX_Top_015FMngTCRejectionEv
FN:210,_ZN17CCExplorerManager16EDROOM_CTX_Top_07FRebootEv
FNDA:1,_ZN17CCExplorerManager16EDROOM_CTX_Top_07FRebootEv
FN:220,_ZN17CCExplorerManager16EDROOM_CTX_Top_09GAcceptTCEv
FNDA:4,_ZN17CCExplorerManager16EDROOM_CTX_Top_09GAcceptTCEv
FN:230,_ZN17CCExplorerManager16EDROOM_CTX_Top_015GFwdToBKGTCExecEv
FNDA:3,_ZN17CCExplorerManager16EDROOM_CTX_Top_015GFwdToBKGTCExecEv
FN:240,_ZN17CCExplorerManager16EDROOM_CTX_Top_013GFwdToHK_FDIREv
FNDA:3,_ZN17CCExplorerManager16EDROOM_CTX_Top_013GFwdToHK_FDIREv
FN:250,_ZN17CCExplorerManager16EDROOM_CTX_Top_09GToRebootEv
FNDA:4,_ZN17CCExplorerManager16EDROOM_CTX_Top_09GToRebootEv
FN:260,_ZN17CCExplorerManager16EDROOM_CTX_Top_014GFwdGuidanceTCEv
FNDA:3,_ZN17CCExplorerManager16EDROOM_CTX_Top_014GFwdGuidanceTCEv
FN:270,_ZN17CCExplorerManager16EDROOM_CTX_Top_014FFwdGuidanceTCEv
FNDA:3,_ZN17CCExplorerManager16EDROOM_CTX_Top_014FFwdGuidanceTCEv
FN:289,_ZN17CCExplorerManager16EDROOM_CTX_Top_019CEDROOMPOOLCDTMListC2EjP8CDTMListPb
FNDA:1,_ZN17CCExplorerManager16EDROOM_CTX_Top_019CEDROOMPOOLCDTMListC2EjP8CDTMListPb
FN:296,_ZN17CCExplorerManager16EDROOM_CTX_Top_019CEDROOMPOOLCDTMList9AllocDataEv
FNDA:5,_ZN17CCExplorerManager16EDROOM_CTX_Top_019CEDROOMPOOLCDTMList9AllocDataEv
FN:303,_ZN17CCExplorerManager16EDROOM_CTX_Top_022CEDROOMPOOLCDTCHandlerC2EjP11CDTCHandlerPb
FNDA:1,_ZN17CCExplorerManager16EDROOM_CTX_Top_022CEDROOMPOOLCDTCHandlerC2EjP11CDTCHandlerPb
FN:310,_ZN17CCExplorerManager16EDROOM_CTX_Top_022CEDROOMPOOLCDTCHandler9AllocDataEv
FNDA:3,_ZN17CCExplorerManager16EDROOM_CTX_Top_022CEDROOMPOOLCDTCHandler9AllocDataEv
FN:327,_ZN17CCExplorerManager16EDROOM_SUB_Top_0C2ERS_PNS_13CEDROOMMemoryE
FNDA:1,_ZN17CCExplorerManager16EDROOM_SUB_Top_0C2ERS_PNS_13CEDROOMMemoryE
FN:347,_ZN17CCExplorerManager16EDROOM_SUB_Top_015EDROOMBehaviourEv
FNDA:1,_ZN17CCExplorerManager16EDROOM_SUB_Top_015EDROOMBehaviourEv
FN:531,_ZN17CCExplorerManager16EDROOM_SUB_Top_010EDROOMInitEv
FNDA:1,_ZN17CCExplorerManager16EDROOM_SUB_Top_010EDROOMInitEv
FN:548,_ZN17CCExplorerManager16EDROOM_SUB_Top_014EDROOMIArrivalEv
FNDA:1,_ZN17CCExplorerManager16EDROOM_SUB_Top_014EDROOMIArrivalEv
FN:570,_ZN17CCExplorerManager16EDROOM_SUB_Top_020EDROOMValidTCArrivalEv
FNDA:4,_ZN17CCExplorerManager16EDROOM_SUB_Top_020EDROOMValidTCArrivalEv
FN:592,_ZN17CCExplorerManager16EDROOM_SUB_Top_018EDROOMReadyArrivalEv
FNDA:4,_ZN17CCExplorerManager16EDROOM_SUB_Top_018EDROOMReadyArrivalEv
FN:653,_ZN17CCExplorerManager16EDROOM_SUB_Top_019EDROOMRebootArrivalEv
FNDA:0,_ZN17CCExplorerManager16EDROOM_SUB_Top_019EDROOMRebootArrivalEv
DA:13,1
DA:18,1
DA:20,1
DA:21,1
DA:22,1
DA:23,1
DA:24,1
DA:25,1
DA:26,1
DA:27,1
DA:28,1
DA:29,1
DA:30,1
DA:31,1
DA:32,1
DA:33,1
DA:35,1
DA:37,0
DA:39,0
DA:40,0
DA:41,0
DA:42,0
DA:43,0
DA:44,0
DA:45,0
DA:46,0
DA:47,0
DA:48,0
DA:49,0
DA:50,0
DA:51,0
DA:52,0
DA:55,0
DA:59,0
DA:63,0
DA:65,0
DA:68,0
DA:70,0
DA:71,0
DA:72,0
DA:73,0
DA:77,0
DA:83,1
DA:87,1
DA:89,1
DA:93,0
DA:97,0
DA:101,0
DA:103,0
DA:104,0
DA:108,0
DA:112,0
DA:116,0
DA:118,0
DA:119,0
DA:123,0
DA:127,0
DA:130,0
DA:135,0
DA:139,4
DA:143,4
DA:147,4
DA:149,4
DA:151,4
DA:155,1
DA:159,1
DA:161,1
DA:162,1
DA:164,1
DA:166,1
DA:170,5
DA:174,5
DA:178,5
DA:179,5
DA:181,5
DA:182,5
DA:186,4
DA:191,4
DA:193,4
DA:197,0
DA:202,0
DA:204,0
DA:206,0
DA:210,1
DA:214,1
DA:216,0
DA:220,4
DA:224,4
DA:230,3
DA:234,3
DA:240,3
DA:244,3
DA:250,4
DA:254,4
DA:260,3
DA:264,3
DA:270,3
DA:274,3
DA:278,3
DA:280,3
DA:281,3
DA:289,1
DA:290,1
DA:292,1
DA:294,1
DA:296,5
DA:298,5
DA:303,1
DA:304,1
DA:306,1
DA:308,1
DA:310,3
DA:312,3
DA:327,1
DA:328,1
DA:330,1
DA:331,1
DA:332,1
DA:333,1
DA:334,1
DA:335,1
DA:336,1
DA:337,1
DA:338,1
DA:339,1
DA:340,2
DA:343,1
DA:347,1
DA:354,1
DA:361,9
DA:365,1
DA:367,1
DA:369,1
DA:370,1
DA:372,4
DA:375,4
DA:377,4
DA:380,4
DA:382,4
DA:385,4
DA:389,4
DA:395,0
DA:397,0
DA:400,0
DA:404,0
DA:406,4
DA:408,0
DA:410,0
DA:412,0
DA:413,0
DA:415,4
DA:418,4
DA:421,1
DA:423,1
DA:426,1
DA:430,1
DA:433,3
DA:436,0
DA:439,0
DA:443,0
DA:446,3
DA:449,0
DA:452,0
DA:456,0
DA:459,3
DA:462,3
DA:465,3
DA:469,3
DA:475,0
DA:477,0
DA:480,0
DA:484,0
DA:486,4
DA:490,9
DA:494,0
DA:496,0
DA:497,0
DA:500,4
DA:502,4
DA:503,4
DA:506,1
DA:508,1
DA:510,0
DA:511,0
DA:514,4
DA:516,4
DA:517,4
DA:521,8
DA:523,8
DA:525,0
DA:531,1
DA:534,1
DA:536,1
DA:548,1
DA:554,1
DA:555,1
DA:556,1
DA:570,4
DA:576,4
DA:577,4
DA:578,4
DA:592,4
DA:597,4
DA:602,4
DA:604,4
DA:607,4
DA:609,4
DA:613,4
DA:614,4
DA:615,4
DA:618,0
DA:622,0
DA:623,0
DA:624,0
DA:627,4
DA:631,4
DA:633,0
DA:637,4
DA:639,4
DA:653,0
DA:658,0
DA:663,0
DA:665,0
DA:667,0
DA:671,0
DA:673,0
end_of_record
SF:/home/atcsol/git/PROYECTO_OBDH/uah_exp_freertos_project_2024/service_libraries/edroomsl/edroombp/include/public/edroombp.h
FN:192,_ZN12Pr_SemaphoreD2Ev
FNDA:0,_ZN12Pr_SemaphoreD2Ev
FN:337,_ZN15Pr_SemaphoreRecD2Ev
FNDA:0,_ZN15Pr_SemaphoreRecD2Ev
DA:192,0
DA:194,0
DA:195,0
DA:337,0
end_of_record
SF:/home/atcsol/git/PROYECTO_OBDH/uah_exp_freertos_project_2024/service_libraries/edroomsl/edroomsl/include/edroomsl/edroomsl.h
FN:115,_ZN11CEDROOMPoolD0Ev
FNDA:0,_ZN11CEDROOMPoolD0Ev
FN:115,_ZN11CEDROOMPoolD2Ev
FNDA:0,_ZN11CEDROOMPoolD2Ev
FN:236,_ZN17CEDROOMMemoryPoolD0Ev
FNDA:0,_ZN17CEDROOMMemoryPoolD0Ev
FN:236,_ZN17CEDROOMMemoryPoolD2Ev
FNDA:0,_ZN17CEDROOMMemoryPoolD2Ev
FN:314,_ZN26CEDROOMProtectedMemoryPoolD0Ev
FNDA:0,_ZN26CEDROOMProtectedMemoryPoolD0Ev
FN:314,_ZN26CEDROOMProtectedMemoryPoolD2Ev
FNDA:0,_ZN26CEDROOMProtectedMemoryPoolD2Ev
DA:115,0
DA:115,0
DA:236,0
DA:236,0
DA:314,0
DA:314,0
end_of_record
SF:/home/atcsol/git/PROYECTO_OBDH/uah_exp_freertos_project_2024/asw/dataclasses/CDEventList/include/public/cdeventlist.h
FN:70,_ZN11CDEventList14ClearEventListEv
FNDA:0,_ZN11CDEventList14ClearEventListEv
FN:88,_ZN11CDEventListC2Ev
FNDA:0,_ZN11CDEventListC2Ev
DA:70,0
DA:71,0
DA:72,0
DA:74,0
DA:88,0
DA:90,0
DA:91,0
end_of_record
SF:/home/atcsol/git/PROYECTO_OBDH/uah_exp_freertos_project_2024/asw/dataclasses/CDTMList/include/public/cdtmlist.h
FN:49,_ZN8CDTMList5ClearEv
FNDA:0,_ZN8CDTMList5ClearEv
DA:49,0
end_of_record
SF:/home/atcsol/git/PROYECTO_OBDH/uah_exp_freertos_project_2024/asw/components/ccexplorermanager/include/public/ccexplorermanager_iface_v1.h
FN:358,_ZN17CCExplorerManager16EDROOM_CTX_Top_016EDROOMNewMessageEv
FNDA:4,_ZN17CCExplorerManager16EDROOM_CTX_Top_016EDROOMNewMessageEv
DA:358,4
DA:359,4
end_of_record
SF:/home/atcsol/git/PROYECTO_OBDH/uah_exp_freertos_project_2024/asw/dataclasses/CDTCHandler/include/public/cdtchandler.h
FN:193,_ZN11CDTCHandler10IsAcceptedEv
FNDA:0,_ZN11CDTCHandler10IsAcceptedEv
FN:202,_ZN11CDTCHandler10IsRebootTCEv
FNDA:4,_ZN11CDTCHandler10IsRebootTCEv
FN:206,_ZN11CDTCHandler11IsHK_FDIRTCEv
FNDA:3,_ZN11CDTCHandler11IsHK_FDIRTCEv
FN:212,_ZN11CDTCHandler7IsBKGTCEv
FNDA:3,_ZN11CDTCHandler7IsBKGTCEv
FN:216,_ZN11CDTCHandler12IsGuidanceTCEv
FNDA:3,_ZN11CDTCHandler12IsGuidanceTCEv
DA:193,0
DA:194,0
DA:202,4
DA:203,4
DA:206,3
DA:207,3
DA:212,3
DA:213,3
DA:216,3
DA:217,3
end_of_record
TN:
SF:/home/atcsol/git/PROYECTO_OBDH/uah_exp_freertos_project_2024/asw/components/uahexplorer/include/public/uahexplorer_iface_v1.h
FN:220,_ZN11UAHExplorer16EDROOM_CTX_Top_016EDROOMNewMessageEv
FNDA:50,_ZN11UAHExplorer16EDROOM_CTX_Top_016EDROOMNewMessageEv
DA:220,50
DA:221,50
end_of_record
SF:/home/atcsol/git/PROYECTO_OBDH/uah_exp_freertos_project_2024/asw/components/uahexplorer/src/UAHExplorerB.cpp
FN:13,_ZN11UAHExplorer16EDROOM_CTX_Top_0C2ERS_R7Pr_Time
FNDA:1,_ZN11UAHExplorer16EDROOM_CTX_Top_0C2ERS_R7Pr_Time
FN:24,_ZN11UAHExplorer16EDROOM_CTX_Top_0C2ERS0_
FNDA:0,_ZN11UAHExplorer16EDROOM_CTX_Top_0C2ERS0_
FN:37,_ZN11UAHExplorer16EDROOM_CTX_Top_024EDROOMSearchContextTransER14TEDROOMTransId
FNDA:0,_ZN11UAHExplorer16EDROOM_CTX_Top_024EDROOMSearchContextTransER14TEDROOMTransId
FN:61,_ZN11UAHExplorer16EDROOM_CTX_Top_014FEmuRxTimeCodeEv
FNDA:50,_ZN11UAHExplorer16EDROOM_CTX_Top_014FEmuRxTimeCodeEv
FN:71,_ZN11UAHExplorer16EDROOM_CTX_Top_05FInitEv
FNDA:1,_ZN11UAHExplorer16EDROOM_CTX_Top_05FInitEv
FN:81,_ZN11UAHExplorer16EDROOM_CTX_Top_010FProgTimerEv
FNDA:51,_ZN11UAHExplorer16EDROOM_CTX_Top_010FProgTimerEv
FN:113,_ZN11UAHExplorer16EDROOM_SUB_Top_0C2ERS_
FNDA:1,_ZN11UAHExplorer16EDROOM_SUB_Top_0C2ERS_
FN:122,_ZN11UAHExplorer16EDROOM_SUB_Top_015EDROOMBehaviourEv
FNDA:1,_ZN11UAHExplorer16EDROOM_SUB_Top_015EDROOMBehaviourEv
FN:185,_ZN11UAHExplorer16EDROOM_SUB_Top_010EDROOMInitEv
FNDA:1,_ZN11UAHExplorer16EDROOM_SUB_Top_010EDROOMInitEv
FN:202,_ZN11UAHExplorer16EDROOM_SUB_Top_014EDROOMIArrivalEv
FNDA:1,_ZN11UAHExplorer16EDROOM_SUB_Top_014EDROOMIArrivalEv
FN:224,_ZN11UAHExplorer16EDROOM_SUB_Top_018EDROOMReadyArrivalEv
FNDA:50,_ZN11UAHExplorer16EDROOM_SUB_Top_018EDROOMReadyArrivalEv
DA:13,1
DA:14,1
DA:16,1
DA:17,1
DA:18,1
DA:19,1
DA:20,1
DA:22,1
DA:24,0
DA:26,0
DA:27,0
DA:28,0
DA:29,0
DA:30,0
DA:33,0
DA:37,0
DA:41,0
DA:43,0
DA:46,0
DA:48,0
DA:49,0
DA:50,0
DA:51,0
DA:55,0
DA:61,50
DA:65,50
DA:67,50
DA:71,1
DA:75,1
DA:77,1
DA:81,51
DA:85,51
DA:89,51
DA:92,51
DA:94,51
DA:95,50
DA:113,1
DA:115,1
DA:118,1
DA:122,1
DA:129,1
DA:136,51
DA:140,1
DA:142,1
DA:144,1
DA:145,1
DA:147,50
DA:149,50
DA:151,50
DA:152,50
DA:156,51
DA:160,0
DA:162,0
DA:163,0
DA:166,51
DA:168,51
DA:170,50
DA:171,50
DA:175,50
DA:177,50
DA:179,0
DA:185,1
DA:188,1
DA:190,1
DA:202,1
DA:208,1
DA:209,1
DA:210,1
DA:224,50
DA:229,50
DA:234,50
DA:236,50
DA:239,50
DA:241,50
DA:245,50
DA:246,50
DA:247,50
DA:250,50
DA:254,50
DA:256,0
DA:260,50
DA:262,50
end_of_record
TN:
SF:/home/atcsol/git/PROYECTO_OBDH/uah_exp_freertos_project_2024/asw/components/uahexplorer/src/UAHExplorerS.cpp
FN:13,_ZN11UAHExplorerC2Ejj15TEDROOMPriorityjPNS_13CEDROOMMemoryE
FNDA:1,_ZN11UAHExplorerC2Ejj15TEDROOMPriorityjPNS_13CEDROOMMemoryE
FN:49,_ZN11UAHExplorer12EDROOMConfigEv
FNDA:0,_ZN11UAHExplorer12EDROOMConfigEv
FN:60,_ZN11UAHExplorer11EDROOMStartEv
FNDA:1,_ZN11UAHExplorer11EDROOMStartEv
FN:85,_ZN11UAHExplorer15EDROOMBehaviourEv
FNDA:1,_ZN11UAHExplorer15EDROOMBehaviourEv
FN:114,_ZN11UAHExplorer13CEDROOMMemory9SetMemoryEjP14CEDROOMMessagePbjPN12CEDROOMQueue10CQueueNodeES3_
FNDA:1,_ZN11UAHExplorer13CEDROOMMemory9SetMemoryEjP14CEDROOMMessagePbjPN12CEDROOMQueue10CQueueNodeES3_
DA:13,1
DA:17,1
DA:24,1
DA:28,1
DA:32,2
DA:38,1
DA:49,0
DA:53,0
DA:60,1
DA:66,1
DA:70,1
DA:72,1
DA:85,1
DA:88,1
DA:89,1
DA:91,0
DA:114,1
DA:122,1
DA:123,1
DA:125,1
DA:128,1
end_of_record
SF:/home/atcsol/git/PROYECTO_OBDH/uah_exp_freertos_project_2024/service_libraries/edroomsl/edroomsl/include/edroomsl/edroomsl.h
end_of_record
SF:/home/atcsol/git/PROYECTO_OBDH/uah_exp_freertos_project_2024/service_libraries/edroomsl/edroombp/include/public/edroombp.h
FN:192,_ZN12Pr_SemaphoreD2Ev
FNDA:0,_ZN12Pr_SemaphoreD2Ev
FN:261,_ZN15Pr_SemaphoreBinD2Ev
FNDA:0,_ZN15Pr_SemaphoreBinD2Ev
FN:337,_ZN15Pr_SemaphoreRecD2Ev
FNDA:0,_ZN15Pr_SemaphoreRecD2Ev
FN:533,_ZN7Pr_TaskD2Ev
FNDA:0,_ZN7Pr_TaskD2Ev
DA:192,0
DA:194,0
DA:195,0
DA:261,0
DA:264,0
DA:337,0
DA:533,0
DA:536,0
end_of_record
SF:/home/atcsol/git/PROYECTO_OBDH/uah_exp_freertos_project_2024/asw/components/uahexplorer/include/public/uahexplorer_iface_v1.h
end_of_record
TN:
SF:/home/atcsol/git/PROYECTO_OBDH/uah_exp_freertos_project_2024/asw/components/cctm_channelctrl/src/CCTM_ChannelCtrlS.cpp
FN:13,_ZN16CCTM_ChannelCtrlC2Ejj15TEDROOMPriorityjPNS_13CEDROOMMemoryE
FNDA:1,_ZN16CCTM_ChannelCtrlC2Ejj15TEDROOMPriorityjPNS_13CEDROOMMemoryE
FN:41,_ZN16CCTM_ChannelCtrl12EDROOMConfigEv
FNDA:0,_ZN16CCTM_ChannelCtrl12EDROOMConfigEv
FN:52,_ZN16CCTM_ChannelCtrl11EDROOMStartEv
FNDA:1,_ZN16CCTM_ChannelCtrl11EDROOMStartEv
FN:73,_ZN16CCTM_ChannelCtrl15EDROOMBehaviourEv
FNDA:1,_ZN16CCTM_ChannelCtrl15EDROOMBehaviourEv
FN:102,_ZN16CCTM_ChannelCtrl13CEDROOMMemory9SetMemoryEjP14CEDROOMMessagePbjPN12CEDROOMQueue10CQueueNodeES3_
FNDA:1,_ZN16CCTM_ChannelCtrl13CEDROOMMemory9SetMemoryEjP14CEDROOMMessagePbjPN12CEDROOMQueue10CQueueNodeES3_
DA:13,1
DA:17,1
DA:24,1
DA:30,1
DA:41,0
DA:45,0
DA:52,1
DA:58,1
DA:60,1
DA:73,1
DA:76,1
DA:77,1
DA:79,0
DA:102,1
DA:110,1
DA:111,1
DA:114,1
end_of_record
SF:/home/atcsol/git/PROYECTO_OBDH/uah_exp_freertos_project_2024/asw/components/cctm_channelctrl/include/public/cctm_channelctrl_iface_v1.h
end_of_record
TN:
SF:/home/atcsol/git/PROYECTO_OBDH/uah_exp_freertos_project_2024/asw/components/cctm_channelctrl/src/CCTM_ChannelCtrlB.cpp
FN:13,_ZN16CCTM_ChannelCtrl16EDROOM_CTX_Top_0C2ERS_
FNDA:1,_ZN16CCTM_ChannelCtrl16EDROOM_CTX_Top_0C2ERS_
FN:25,_ZN16CCTM_ChannelCtrl16EDROOM_CTX_Top_0C2ERS0_
FNDA:0,_ZN16CCTM_ChannelCtrl16EDROOM_CTX_Top_0C2ERS0_
FN:40,_ZN16CCTM_ChannelCtrl16EDROOM_CTX_Top_024EDROOMSearchContextTransER14TEDROOMTransId
FNDA:0,_ZN16CCTM_ChannelCtrl16EDROOM_CTX_Top_024EDROOMSearchContextTransER14TEDROOMTransId
FN:64,_ZN16CCTM_ChannelCtrl16EDROOM_CTX_Top_014FReplyTMQueuedEv
FNDA:553,_ZN16CCTM_ChannelCtrl16EDROOM_CTX_Top_014FReplyTMQueuedEv
FN:74,_ZN16CCTM_ChannelCtrl16EDROOM_CTX_Top_09FTxTMListEv
FNDA:553,_ZN16CCTM_ChannelCtrl16EDROOM_CTX_Top_09FTxTMListEv
FN:102,_ZN16CCTM_ChannelCtrl16EDROOM_SUB_Top_0C2ERS_
FNDA:1,_ZN16CCTM_ChannelCtrl16EDROOM_SUB_Top_0C2ERS_
FN:110,_ZN16CCTM_ChannelCtrl16EDROOM_SUB_Top_015EDROOMBehaviourEv
FNDA:1,_ZN16CCTM_ChannelCtrl16EDROOM_SUB_Top_015EDROOMBehaviourEv
FN:171,_ZN16CCTM_ChannelCtrl16EDROOM_SUB_Top_010EDROOMInitEv
FNDA:1,_ZN16CCTM_ChannelCtrl16EDROOM_SUB_Top_010EDROOMInitEv
FN:188,_ZN16CCTM_ChannelCtrl16EDROOM_SUB_Top_014EDROOMIArrivalEv
FNDA:1,_ZN16CCTM_ChannelCtrl16EDROOM_SUB_Top_014EDROOMIArrivalEv
FN:210,_ZN16CCTM_ChannelCtrl16EDROOM_SUB_Top_018EDROOMReadyArrivalEv
FNDA:554,_ZN16CCTM_ChannelCtrl16EDROOM_SUB_Top_018EDROOMReadyArrivalEv
DA:13,1
DA:15,1
DA:16,1
DA:17,1
DA:18,1
DA:19,1
DA:20,1
DA:21,1
DA:23,1
DA:25,0
DA:27,0
DA:28,0
DA:29,0
DA:30,0
DA:31,0
DA:32,0
DA:33,0
DA:36,0
DA:40,0
DA:44,0
DA:46,0
DA:49,0
DA:51,0
DA:52,0
DA:53,0
DA:54,0
DA:58,0
DA:64,553
DA:69,553
DA:70,553
DA:74,553
DA:78,553
DA:82,553
DA:84,553
DA:102,1
DA:103,1
DA:106,1
DA:110,1
DA:117,1
DA:124,554
DA:128,1
DA:130,1
DA:131,1
DA:133,553
DA:135,553
DA:137,553
DA:139,553
DA:140,553
DA:144,554
DA:148,0
DA:150,0
DA:151,0
DA:154,554
DA:156,554
DA:157,553
DA:161,553
DA:163,553
DA:165,0
DA:171,1
DA:174,1
DA:176,1
DA:188,1
DA:194,1
DA:195,1
DA:196,1
DA:210,554
DA:215,554
DA:220,554
DA:222,553
DA:225,553
DA:229,553
DA:230,553
DA:231,553
DA:234,553
DA:238,553
DA:240,0
DA:244,553
DA:246,553
end_of_record
SF:/home/atcsol/git/PROYECTO_OBDH/uah_exp_freertos_project_2024/asw/components/cctm_channelctrl/include/public/cctm_channelctrl_iface_v1.h
FN:213,_ZN16CCTM_ChannelCtrl16EDROOM_CTX_Top_016EDROOMNewMessageEv
FNDA:554,_ZN16CCTM_ChannelCtrl16EDROOM_CTX_Top_016EDROOMNewMessageEv
DA:213,554
DA:214,554
end_of_record
TN:
SF:/home/atcsol/git/PROYECTO_OBDH/uah_exp_freertos_project_2024/llsw/emu_gss/src/emu_gss_pus_service20.cpp
FN:17,_ZN20EmuGSS_TCProgram20_1C2EjPKct
FNDA:0,_ZN20EmuGSS_TCProgram20_1C2EjPKct
FN:27,_ZN20EmuGSS_TCProgram20_114BuildTCAppDataER13tc_descriptor
FNDA:0,_ZN20EmuGSS_TCProgram20_114BuildTCAppDataER13tc_descriptor
FN:33,_ZN20EmuGSS_TCProgram20_3C2EjPKctt
FNDA:0,_ZN20EmuGSS_TCProgram20_3C2EjPKctt
FN:45,_ZN20EmuGSS_TCProgram20_314BuildTCAppDataER13tc_descriptor
FNDA:0,_ZN20EmuGSS_TCProgram20_314BuildTCAppDataER13tc_descriptor
FN:53,_Z19EmuGSS_ShowServ20TMPK13tm_descriptor
FNDA:0,_Z19EmuGSS_ShowServ20TMPK13tm_descriptor
FN:62,_ZN18GSSServ20TMHandlerC2EPKh
FNDA:0,_ZN18GSSServ20TMHandlerC2EPKh
FN:67,_ZN18GSSServ20TMHandler6ShowTMEv
FNDA:0,_ZN18GSSServ20TMHandler6ShowTMEv
FN:77,_ZN18GSSServ20TMHandler11ShowTM_20_2Ev
FNDA:0,_ZN18GSSServ20TMHandler11ShowTM_20_2Ev
DA:17,0
DA:19,0
DA:21,0
DA:23,0
DA:24,0
DA:25,0
DA:27,0
DA:29,0
DA:31,0
DA:33,0
DA:35,0
DA:37,0
DA:39,0
DA:40,0
DA:42,0
DA:43,0
DA:45,0
DA:47,0
DA:48,0
DA:50,0
DA:53,0
DA:55,0
DA:56,0
DA:58,0
DA:62,0
DA:63,0
DA:65,0
DA:67,0
DA:69,0
DA:70,0
DA:71,0
DA:72,0
DA:75,0
DA:77,0
DA:79,0
DA:80,0
DA:82,0
DA:85,0
end_of_record
TN:
SF:/home/atcsol/git/PROYECTO_OBDH/uah_exp_freertos_project_2024/llsw/emu_gss/src/emu_gss_tc_program.cpp
FN:19,_ZN16EmuGSS_TCProgram21GetCurrentTCProgramedEv
FNDA:4,_ZN16EmuGSS_TCProgram21GetCurrentTCProgramedEv
FN:25,_ZN16EmuGSS_TCProgramC2EjhhtPKc
FNDA:4,_ZN16EmuGSS_TCProgramC2EjhhtPKc
FN:36,_ZN16EmuGSS_TCProgram21SetCurrentTCProgramedEj
FNDA:54,_ZN16EmuGSS_TCProgram21SetCurrentTCProgramedEj
FN:48,_ZN16EmuGSS_TCProgram10NewProgramEPS_
FNDA:4,_ZN16EmuGSS_TCProgram10NewProgramEPS_
FN:82,_ZN16EmuGSS_TCProgram7BuildTCER13tc_descriptor
FNDA:4,_ZN16EmuGSS_TCProgram7BuildTCER13tc_descriptor
FN:99,_ZN16EmuGSS_TCProgram17BuildTCPackHeaderER13tc_descriptor
FNDA:4,_ZN16EmuGSS_TCProgram17BuildTCPackHeaderER13tc_descriptor
FN:122,_ZN16EmuGSS_TCProgram15BuildTCDFHeaderER13tc_descriptor
FNDA:4,_ZN16EmuGSS_TCProgram15BuildTCDFHeaderER13tc_descriptor
FN:132,_ZN16EmuGSS_TCProgram12SetNextUInt8ERh
FNDA:0,_ZN16EmuGSS_TCProgram12SetNextUInt8ERh
FN:137,_ZN16EmuGSS_TCProgram13SetNextUInt16ERt
FNDA:0,_ZN16EmuGSS_TCProgram13SetNextUInt16ERt
FN:142,_ZN16EmuGSS_TCProgram13SetNextUInt32ERj
FNDA:0,_ZN16EmuGSS_TCProgram13SetNextUInt32ERj
FN:146,_ZN16EmuGSS_TCProgram13SetNextUInt64ERm
FNDA:0,_ZN16EmuGSS_TCProgram13SetNextUInt64ERm
FN:151,_ZN16EmuGSS_TCProgram11SetNextInt8ERa
FNDA:0,_ZN16EmuGSS_TCProgram11SetNextInt8ERa
FN:155,_ZN16EmuGSS_TCProgram12SetNextInt16ERs
FNDA:0,_ZN16EmuGSS_TCProgram12SetNextInt16ERs
FN:160,_ZN16EmuGSS_TCProgram12SetNextInt32ERi
FNDA:0,_ZN16EmuGSS_TCProgram12SetNextInt32ERi
FN:164,_ZN16EmuGSS_TCProgram12SetNextInt64ERl
FNDA:0,_ZN16EmuGSS_TCProgram12SetNextInt64ERl
FN:168,_ZN16EmuGSS_TCProgram12SetNextFloatERf
FNDA:6,_ZN16EmuGSS_TCProgram12SetNextFloatERf
DA:19,4
DA:21,4
DA:25,4
DA:26,4
DA:28,4
DA:29,4
DA:30,4
DA:31,4
DA:32,4
DA:33,4
DA:34,4
DA:36,54
DA:37,54
DA:38,54
DA:39,53
DA:40,4
DA:41,4
DA:42,4
DA:45,54
DA:48,4
DA:49,4
DA:51,4
DA:52,1
DA:53,1
DA:55,3
DA:57,3
DA:58,3
DA:59,9
DA:60,6
DA:61,0
DA:62,0
DA:64,0
DA:66,0
DA:67,0
DA:69,6
DA:70,6
DA:71,6
DA:72,3
DA:73,3
DA:74,3
DA:80,4
DA:82,4
DA:84,4
DA:86,4
DA:87,4
DA:88,4
DA:89,4
DA:91,4
DA:92,4
DA:93,4
DA:95,4
DA:98,4
DA:99,4
DA:101,4
DA:102,4
DA:104,4
DA:107,4
DA:109,4
DA:111,4
DA:114,4
DA:117,4
DA:121,4
DA:122,4
DA:124,4
DA:125,4
DA:126,4
DA:127,4
DA:128,4
DA:130,4
DA:132,0
DA:133,0
DA:134,0
DA:135,0
DA:137,0
DA:138,0
DA:139,0
DA:140,0
DA:142,0
DA:143,0
DA:144,0
DA:145,0
DA:146,0
DA:147,0
DA:148,0
DA:149,0
DA:151,0
DA:152,0
DA:153,0
DA:154,0
DA:155,0
DA:156,0
DA:157,0
DA:158,0
DA:160,0
DA:161,0
DA:162,0
DA:163,0
DA:164,0
DA:165,0
DA:166,0
DA:167,0
DA:168,6
DA:170,6
DA:171,6
DA:172,6
DA:173,6
end_of_record
TN:
SF:/home/atcsol/git/PROYECTO_OBDH/uah_exp_freertos_project_2024/llsw/emu_gss/src/emu_gss_tm_handler.cpp
FN:17,_ZN12GSSTMHandler10GetPUSTypeEPK13tm_descriptor
FNDA:41,_ZN12GSSTMHandler10GetPUSTypeEPK13tm_descriptor
FN:27,_ZN12GSSTMHandler13GetPUSSubtypeEPK13tm_descriptor
FNDA:41,_ZN12GSSTMHandler13GetPUSSubtypeEPK13tm_descriptor
FN:38,_ZN12GSSTMHandlerC2EPKh
FNDA:41,_ZN12GSSTMHandlerC2EPKh
FN:53,_ZN12GSSTMHandler24GetNextUInt8AppDataFieldEv
FNDA:1,_ZN12GSSTMHandler24GetNextUInt8AppDataFieldEv
FN:61,_ZN12GSSTMHandler25GetNextUInt16AppDataFieldEv
FNDA:205,_ZN12GSSTMHandler25GetNextUInt16AppDataFieldEv
FN:69,_ZN12GSSTMHandler25GetNextUInt32AppDataFieldEv
FNDA:0,_ZN12GSSTMHandler25GetNextUInt32AppDataFieldEv
FN:78,_ZN12GSSTMHandler25GetNextUInt64AppDataFieldEv
FNDA:0,_ZN12GSSTMHandler25GetNextUInt64AppDataFieldEv
FN:87,_ZN12GSSTMHandler23GetNextInt8AppDataFieldEv
FNDA:0,_ZN12GSSTMHandler23GetNextInt8AppDataFieldEv
FN:95,_ZN12GSSTMHandler24GetNextInt16AppDataFieldEv
FNDA:0,_ZN12GSSTMHandler24GetNextInt16AppDataFieldEv
FN:104,_ZN12GSSTMHandler24GetNextInt32AppDataFieldEv
FNDA:0,_ZN12GSSTMHandler24GetNextInt32AppDataFieldEv
FN:113,_ZN12GSSTMHandler24GetNextInt64AppDataFieldEv
FNDA:0,_ZN12GSSTMHandler24GetNextInt64AppDataFieldEv
DA:17,41
DA:19,41
DA:20,41
DA:21,41
DA:23,41
DA:27,41
DA:30,41
DA:31,41
DA:32,41
DA:34,41
DA:38,41
DA:40,41
DA:41,41
DA:42,41
DA:44,41
DA:45,41
DA:46,41
DA:47,41
DA:49,41
DA:51,41
DA:53,1
DA:56,1
DA:57,1
DA:58,1
DA:61,205
DA:64,205
DA:65,205
DA:66,205
DA:69,0
DA:72,0
DA:73,0
DA:74,0
DA:78,0
DA:81,0
DA:82,0
DA:83,0
DA:87,0
DA:89,0
DA:90,0
DA:91,0
DA:95,0
DA:98,0
DA:99,0
DA:100,0
DA:104,0
DA:107,0
DA:108,0
DA:109,0
DA:113,0
DA:116,0
DA:117,0
DA:118,0
end_of_record
TN:
SF:/home/atcsol/git/PROYECTO_OBDH/uah_exp_freertos_project_2024/llsw/emu_gss/src/emu_gss_pus_service3.cpp
FN:19,_ZN19EmuGSS_TCProgram3_5C2EjPKct
FNDA:0,_ZN19EmuGSS_TCProgram3_5C2EjPKct
FN:29,_ZN19EmuGSS_TCProgram3_514BuildTCAppDataER13tc_descriptor
FNDA:0,_ZN19EmuGSS_TCProgram3_514BuildTCAppDataER13tc_descriptor
FN:36,_ZN19EmuGSS_TCProgram3_6C2EjPKct
FNDA:0,_ZN19EmuGSS_TCProgram3_6C2EjPKct
FN:46,_ZN19EmuGSS_TCProgram3_614BuildTCAppDataER13tc_descriptor
FNDA:0,_ZN19EmuGSS_TCProgram3_614BuildTCAppDataER13tc_descriptor
FN:52,_ZN20EmuGSS_TCProgram3_31C2EjPKcth
FNDA:0,_ZN20EmuGSS_TCProgram3_31C2EjPKcth
FN:64,_ZN20EmuGSS_TCProgram3_3114BuildTCAppDataER13tc_descriptor
FNDA:0,_ZN20EmuGSS_TCProgram3_3114BuildTCAppDataER13tc_descriptor
FN:73,_Z18EmuGSS_ShowServ3TMPK13tm_descriptor
FNDA:33,_Z18EmuGSS_ShowServ3TMPK13tm_descriptor
FN:82,_ZN17GSSServ3TMHandlerC2EPKh
FNDA:33,_ZN17GSSServ3TMHandlerC2EPKh
FN:87,_ZN17GSSServ3TMHandler6ShowTMEv
FNDA:33,_ZN17GSSServ3TMHandler6ShowTMEv
FN:99,_ZN17GSSServ3TMHandler11ShowTM_3_25Ev
FNDA:33,_ZN17GSSServ3TMHandler11ShowTM_3_25Ev
FN:143,_ZN17GSSServ3TMHandler16ShowTM_3_25_SID0Ev
FNDA:24,_ZN17GSSServ3TMHandler16ShowTM_3_25_SID0Ev
FN:163,_ZN17GSSServ3TMHandler17ShowTM_3_25_SID10Ev
FNDA:9,_ZN17GSSServ3TMHandler17ShowTM_3_25_SID10Ev
DA:19,0
DA:21,0
DA:23,0
DA:25,0
DA:26,0
DA:27,0
DA:29,0
DA:31,0
DA:33,0
DA:36,0
DA:38,0
DA:40,0
DA:42,0
DA:43,0
DA:44,0
DA:46,0
DA:48,0
DA:50,0
DA:52,0
DA:54,0
DA:56,0
DA:58,0
DA:59,0
DA:61,0
DA:62,0
DA:64,0
DA:66,0
DA:67,0
DA:70,0
DA:73,33
DA:75,33
DA:76,33
DA:78,33
DA:82,33
DA:83,33
DA:85,33
DA:87,33
DA:89,33
DA:90,33
DA:91,33
DA:92,33
DA:95,33
DA:99,33
DA:101,33
DA:103,33
DA:105,33
DA:107,24
DA:109,9
DA:111,9
DA:115,0
DA:117,0
DA:119,0
DA:121,0
DA:122,0
DA:123,0
DA:124,0
DA:125,0
DA:127,0
DA:130,0
DA:133,0
DA:137,33
DA:143,24
DA:145,144
DA:147,120
DA:148,120
DA:150,120
DA:151,24
DA:152,96
DA:153,24
DA:155,72
DA:157,24
DA:163,9
DA:165,45
DA:167,36
DA:168,36
DA:170,36
DA:171,9
DA:172,27
DA:173,9
DA:175,18
DA:177,9
end_of_record
TN:
SF:/home/atcsol/git/PROYECTO_OBDH/uah_exp_freertos_project_2024/llsw/emu_gss/src/emu_gss.cpp
FN:20,_Z13EmuGSS_ShowTMPK13tm_descriptor
FNDA:41,_Z13EmuGSS_ShowTMPK13tm_descriptor
FN:55,_Z17EmuGSS_PassSecondv
FNDA:50,_Z17EmuGSS_PassSecondv
FN:65,_Z24EmuGSS_SendProgrammedTCsv
FNDA:50,_Z24EmuGSS_SendProgrammedTCsv
DA:20,41
DA:23,41
DA:24,41
DA:26,41
DA:28,41
DA:30,8
DA:32,8
DA:34,8
DA:36,33
DA:37,33
DA:38,33
DA:40,0
DA:41,0
DA:42,0
DA:43,0
DA:44,0
DA:45,0
DA:46,0
DA:47,0
DA:48,0
DA:51,41
DA:53,41
DA:55,50
DA:59,50
DA:61,50
DA:63,50
DA:65,50
DA:67,50
DA:69,50
DA:70,54
DA:72,4
DA:73,4
DA:74,4
DA:76,4
DA:77,4
DA:82,4
DA:84,4
DA:86,4
DA:88,4
DA:90,4
DA:95,50
DA:97,4
DA:101,50
end_of_record
SF:/home/atcsol/git/PROYECTO_OBDH/uah_exp_freertos_project_2024/llsw/emu_gss/include/emu_gss/emu_gss_tc_program.h
FN:46,_ZN16EmuGSS_TCProgram7GetTypeEv
FNDA:4,_ZN16EmuGSS_TCProgram7GetTypeEv
FN:47,_ZN16EmuGSS_TCProgram10GetSubtypeEv
FNDA:4,_ZN16EmuGSS_TCProgram10GetSubtypeEv
FN:48,_ZN16EmuGSS_TCProgram8GetBriefEv
FNDA:4,_ZN16EmuGSS_TCProgram8GetBriefEv
DA:46,4
DA:47,4
DA:48,4
end_of_record
TN:
SF:/home/atcsol/git/PROYECTO_OBDH/uah_exp_freertos_project_2024/llsw/emu_gss/src/emu_gss_pus_service2.cpp
FN:17,_ZN19EmuGSS_TCProgram2_1C2EjPKch20DeviceCommandOnOff_t
FNDA:0,_ZN19EmuGSS_TCProgram2_1C2EjPKch20DeviceCommandOnOff_t
FN:30,_ZN19EmuGSS_TCProgram2_1C2Eh20DeviceCommandOnOff_t
FNDA:0,_ZN19EmuGSS_TCProgram2_1C2Eh20DeviceCommandOnOff_t
FN:42,_ZN19EmuGSS_TCProgram2_114BuildTCAppDataER13tc_descriptor
FNDA:0,_ZN19EmuGSS_TCProgram2_114BuildTCAppDataER13tc_descriptor
DA:17,0
DA:20,0
DA:22,0
DA:24,0
DA:26,0
DA:27,0
DA:30,0
DA:32,0
DA:34,0
DA:36,0
DA:40,0
DA:42,0
DA:44,0
DA:46,0
end_of_record
TN:
SF:/home/atcsol/git/PROYECTO_OBDH/uah_exp_freertos_project_2024/llsw/emu_gss/src/emu_gss_pus_service12.cpp
FN:19,_ZN20EmuGSS_TCProgram12_1C2EjPKct
FNDA:0,_ZN20EmuGSS_TCProgram12_1C2EjPKct
FN:28,_ZN20EmuGSS_TCProgram12_114BuildTCAppDataER13tc_descriptor
FNDA:0,_ZN20EmuGSS_TCProgram12_114BuildTCAppDataER13tc_descriptor
FN:34,_ZN20EmuGSS_TCProgram12_2C2EjPKct
FNDA:0,_ZN20EmuGSS_TCProgram12_2C2EjPKct
FN:43,_ZN20EmuGSS_TCProgram12_214BuildTCAppDataER13tc_descriptor
FNDA:0,_ZN20EmuGSS_TCProgram12_214BuildTCAppDataER13tc_descriptor
FN:49,_ZN20EmuGSS_TCProgram12_5C2EjPKctthtttt
FNDA:0,_ZN20EmuGSS_TCProgram12_5C2EjPKctthtttt
FN:65,_ZN20EmuGSS_TCProgram12_514BuildTCAppDataER13tc_descriptor
FNDA:0,_ZN20EmuGSS_TCProgram12_514BuildTCAppDataER13tc_descriptor
FN:77,_ZN20EmuGSS_TCProgram12_6C2EjPKct
FNDA:0,_ZN20EmuGSS_TCProgram12_6C2EjPKct
FN:86,_ZN20EmuGSS_TCProgram12_614BuildTCAppDataER13tc_descriptor
FNDA:0,_ZN20EmuGSS_TCProgram12_614BuildTCAppDataER13tc_descriptor
FN:93,_Z19EmuGSS_ShowServ12TMPK13tm_descriptor
FNDA:0,_Z19EmuGSS_ShowServ12TMPK13tm_descriptor
FN:100,_ZN18GSSServ12TMHandlerC2EPKh
FNDA:0,_ZN18GSSServ12TMHandlerC2EPKh
FN:105,_ZN18GSSServ12TMHandler6ShowTMEv
FNDA:0,_ZN18GSSServ12TMHandler6ShowTMEv
DA:19,0
DA:20,0
DA:22,0
DA:24,0
DA:25,0
DA:26,0
DA:28,0
DA:30,0
DA:32,0
DA:34,0
DA:35,0
DA:37,0
DA:39,0
DA:40,0
DA:41,0
DA:43,0
DA:45,0
DA:47,0
DA:49,0
DA:51,0
DA:53,0
DA:55,0
DA:56,0
DA:57,0
DA:58,0
DA:59,0
DA:60,0
DA:61,0
DA:62,0
DA:63,0
DA:65,0
DA:67,0
DA:68,0
DA:69,0
DA:70,0
DA:71,0
DA:72,0
DA:73,0
DA:75,0
DA:77,0
DA:78,0
DA:80,0
DA:82,0
DA:83,0
DA:84,0
DA:86,0
DA:88,0
DA:90,0
DA:93,0
DA:95,0
DA:96,0
DA:98,0
DA:100,0
DA:101,0
DA:103,0
DA:105,0
DA:107,0
end_of_record
TN:
SF:/home/atcsol/git/PROYECTO_OBDH/uah_exp_freertos_project_2024/llsw/emu_gss/src/emu_gss_pus_service1.cpp
FN:31,_Z18EmuGSS_ShowServ1TMPK13tm_descriptor
FNDA:8,_Z18EmuGSS_ShowServ1TMPK13tm_descriptor
FN:38,_ZN17GSSServ1TMHandlerC2EPKh
FNDA:8,_ZN17GSSServ1TMHandlerC2EPKh
FN:43,_ZN17GSSServ1TMHandler6ShowTMEv
FNDA:8,_ZN17GSSServ1TMHandler6ShowTMEv
FN:59,_ZN17GSSServ1TMHandler10ShowTM_1_2Ev
FNDA:0,_ZN17GSSServ1TMHandler10ShowTM_1_2Ev
FN:94,_ZN17GSSServ1TMHandler10ShowTM_1_8Ev
FNDA:1,_ZN17GSSServ1TMHandler10ShowTM_1_8Ev
DA:31,8
DA:33,8
DA:34,8
DA:36,8
DA:38,8
DA:39,8
DA:41,8
DA:43,8
DA:46,8
DA:48,8
DA:50,8
DA:51,0
DA:52,0
DA:53,0
DA:54,1
DA:55,1
DA:56,1
DA:58,8
DA:59,0
DA:61,0
DA:62,0
DA:63,0
DA:65,0
DA:66,0
DA:68,0
DA:70,0
DA:71,0
DA:73,0
DA:75,0
DA:76,0
DA:78,0
DA:80,0
DA:82,0
DA:84,0
DA:86,0
DA:88,0
DA:92,0
DA:94,1
DA:96,1
DA:97,1
DA:98,0
DA:100,0
DA:101,0
DA:103,0
DA:105,0
DA:106,0
DA:108,0
DA:110,0
DA:111,0
DA:113,0
DA:115,0
DA:117,0
DA:119,0
DA:121,0
DA:123,0
DA:125,0
DA:127,0
DA:129,0
DA:130,0
DA:132,0
DA:134,0
DA:135,0
DA:137,0
DA:139,0
DA:141,0
DA:143,0
DA:145,0
DA:147,0
DA:149,0
DA:151,0
DA:153,0
DA:155,0
DA:157,0
DA:160,1
end_of_record
TN:
SF:/home/atcsol/git/PROYECTO_OBDH/uah_exp_freertos_project_2024/llsw/emu_gss/src/emu_gss_pus_service19.cpp
FN:27,_ZN31EmuGSS_TCProgram19_1_Action_2_1C2EjPKcth20DeviceCommandOnOff_t
FNDA:0,_ZN31EmuGSS_TCProgram19_1_Action_2_1C2EjPKcth20DeviceCommandOnOff_t
FN:38,_ZN31EmuGSS_TCProgram19_1_Action_2_114BuildTCAppDataER13tc_descriptor
FNDA:0,_ZN31EmuGSS_TCProgram19_1_Action_2_114BuildTCAppDataER13tc_descriptor
FN:53,_ZN33EmuGSS_TCProgram19_1_Action_128_1C2EjPKct
FNDA:0,_ZN33EmuGSS_TCProgram19_1_Action_128_1C2EjPKct
FN:62,_ZN33EmuGSS_TCProgram19_1_Action_128_114BuildTCAppDataER13tc_descriptor
FNDA:0,_ZN33EmuGSS_TCProgram19_1_Action_128_114BuildTCAppDataER13tc_descriptor
FN:77,_ZN20EmuGSS_TCProgram19_2C2EjPKct
FNDA:0,_ZN20EmuGSS_TCProgram19_2C2EjPKct
FN:86,_ZN20EmuGSS_TCProgram19_214BuildTCAppDataER13tc_descriptor
FNDA:0,_ZN20EmuGSS_TCProgram19_214BuildTCAppDataER13tc_descriptor
FN:92,_ZN20EmuGSS_TCProgram19_4C2EjPKct
FNDA:0,_ZN20EmuGSS_TCProgram19_4C2EjPKct
FN:101,_ZN20EmuGSS_TCProgram19_414BuildTCAppDataER13tc_descriptor
FNDA:0,_ZN20EmuGSS_TCProgram19_414BuildTCAppDataER13tc_descriptor
FN:107,_ZN20EmuGSS_TCProgram19_5C2EjPKct
FNDA:0,_ZN20EmuGSS_TCProgram19_5C2EjPKct
FN:116,_ZN20EmuGSS_TCProgram19_514BuildTCAppDataER13tc_descriptor
FNDA:0,_ZN20EmuGSS_TCProgram19_514BuildTCAppDataER13tc_descriptor
FN:123,_Z19EmuGSS_ShowServ19TMPK13tm_descriptor
FNDA:0,_Z19EmuGSS_ShowServ19TMPK13tm_descriptor
FN:130,_ZN18GSSServ19TMHandlerC2EPKh
FNDA:0,_ZN18GSSServ19TMHandlerC2EPKh
FN:135,_ZN18GSSServ19TMHandler6ShowTMEv
FNDA:0,_ZN18GSSServ19TMHandler6ShowTMEv
DA:27,0
DA:29,0
DA:31,0
DA:32,0
DA:34,0
DA:35,0
DA:36,0
DA:38,0
DA:43,0
DA:45,0
DA:47,0
DA:48,0
DA:49,0
DA:51,0
DA:53,0
DA:54,0
DA:56,0
DA:57,0
DA:58,0
DA:60,0
DA:62,0
DA:67,0
DA:69,0
DA:71,0
DA:73,0
DA:74,0
DA:76,0
DA:77,0
DA:78,0
DA:80,0
DA:82,0
DA:83,0
DA:84,0
DA:86,0
DA:88,0
DA:90,0
DA:92,0
DA:93,0
DA:95,0
DA:97,0
DA:98,0
DA:99,0
DA:101,0
DA:103,0
DA:105,0
DA:107,0
DA:108,0
DA:110,0
DA:112,0
DA:113,0
DA:114,0
DA:116,0
DA:118,0
DA:120,0
DA:123,0
DA:125,0
DA:126,0
DA:128,0
DA:130,0
DA:131,0
DA:133,0
DA:135,0
DA:137,0
end_of_record
TN:
SF:/home/atcsol/git/PROYECTO_OBDH/uah_exp_freertos_project_2024/llsw/emu_gss/src/emu_gss_pus_service17.cpp
FN:13,_ZN20EmuGSS_TCProgram17_1C2EjPKc
FNDA:0,_ZN20EmuGSS_TCProgram17_1C2EjPKc
FN:20,_ZN20EmuGSS_TCProgram17_114BuildTCAppDataER13tc_descriptor
FNDA:0,_ZN20EmuGSS_TCProgram17_114BuildTCAppDataER13tc_descriptor
FN:27,_ZN20EmuGSS_TCProgram17_3C2EjPKct
FNDA:0,_ZN20EmuGSS_TCProgram17_3C2EjPKct
FN:35,_ZN20EmuGSS_TCProgram17_314BuildTCAppDataER13tc_descriptor
FNDA:0,_ZN20EmuGSS_TCProgram17_314BuildTCAppDataER13tc_descriptor
DA:13,0
DA:14,0
DA:15,0
DA:17,0
DA:18,0
DA:20,0
DA:23,0
DA:27,0
DA:28,0
DA:29,0
DA:31,0
DA:32,0
DA:33,0
DA:35,0
DA:38,0
end_of_record
TN:
SF:/home/atcsol/git/PROYECTO_OBDH/uah_exp_freertos_project_2024/llsw/emu_gss/src/emu_gss_pus_service5.cpp
FN:18,_ZN19EmuGSS_TCProgram5_5C2EjPKct
FNDA:0,_ZN19EmuGSS_TCProgram5_5C2EjPKct
FN:28,_ZN19EmuGSS_TCProgram5_514BuildTCAppDataER13tc_descriptor
FNDA:0,_ZN19EmuGSS_TCProgram5_514BuildTCAppDataER13tc_descriptor
FN:35,_ZN19EmuGSS_TCProgram5_6C2EjPKct
FNDA:0,_ZN19EmuGSS_TCProgram5_6C2EjPKct
FN:45,_ZN19EmuGSS_TCProgram5_614BuildTCAppDataER13tc_descriptor
FNDA:0,_ZN19EmuGSS_TCProgram5_614BuildTCAppDataER13tc_descriptor
FN:54,_Z18EmuGSS_ShowServ5TMPK13tm_descriptor
FNDA:0,_Z18EmuGSS_ShowServ5TMPK13tm_descriptor
FN:63,_ZN17GSSServ5TMHandlerC2EPKh
FNDA:0,_ZN17GSSServ5TMHandlerC2EPKh
FN:68,_ZN17GSSServ5TMHandler6ShowTMEv
FNDA:0,_ZN17GSSServ5TMHandler6ShowTMEv
FN:87,_ZN17GSSServ5TMHandler10ShowTM_5_1Ev
FNDA:0,_ZN17GSSServ5TMHandler10ShowTM_5_1Ev
FN:95,_ZN17GSSServ5TMHandler10ShowTM_5_2Ev
FNDA:0,_ZN17GSSServ5TMHandler10ShowTM_5_2Ev
FN:103,_ZN17GSSServ5TMHandler10ShowTM_5_3Ev
FNDA:0,_ZN17GSSServ5TMHandler10ShowTM_5_3Ev
FN:111,_ZN17GSSServ5TMHandler10ShowTM_5_4Ev
FNDA:0,_ZN17GSSServ5TMHandler10ShowTM_5_4Ev
DA:18,0
DA:20,0
DA:22,0
DA:24,0
DA:25,0
DA:26,0
DA:28,0
DA:30,0
DA:32,0
DA:35,0
DA:37,0
DA:39,0
DA:41,0
DA:42,0
DA:43,0
DA:45,0
DA:47,0
DA:49,0
DA:54,0
DA:56,0
DA:57,0
DA:59,0
DA:63,0
DA:64,0
DA:66,0
DA:68,0
DA:70,0
DA:71,0
DA:72,0
DA:73,0
DA:74,0
DA:75,0
DA:76,0
DA:77,0
DA:78,0
DA:79,0
DA:80,0
DA:81,0
DA:82,0
DA:85,0
DA:87,0
DA:89,0
DA:91,0
DA:93,0
DA:95,0
DA:97,0
DA:99,0
DA:101,0
DA:103,0
DA:105,0
DA:107,0
DA:109,0
DA:111,0
DA:113,0
DA:115,0
DA:117,0
DA:118,0
DA:119,0
DA:120,0
DA:121,0
DA:123,0
DA:124,0
DA:126,0
DA:128,0
DA:129,0
DA:130,0
DA:131,0
DA:133,0
DA:134,0
DA:136,0
DA:139,0
DA:140,0
end_of_record
TN:
SF:/home/atcsol/git/PROYECTO_OBDH/uah_exp_freertos_project_2024/llsw/emu_gss/src/emu_gss_pus_service128.cpp
FN:15,_ZN21EmuGSS_TCProgram128_1C2EjPKc
FNDA:1,_ZN21EmuGSS_TCProgram128_1C2EjPKc
FN:24,_ZN21EmuGSS_TCProgram128_1C2Ev
FNDA:0,_ZN21EmuGSS_TCProgram128_1C2Ev
FN:31,_ZN21EmuGSS_TCProgram128_114BuildTCAppDataER13tc_descriptor
FNDA:1,_ZN21EmuGSS_TCProgram128_114BuildTCAppDataER13tc_descriptor
DA:15,1
DA:16,1
DA:18,1
DA:20,1
DA:21,1
DA:24,0
DA:25,0
DA:29,0
DA:31,1
DA:34,1
end_of_record
TN:
SF:/home/atcsol/git/PROYECTO_OBDH/uah_exp_freertos_project_2024/llsw/emu_gss/src/emu_gss_pus_service129.cpp
FN:16,_ZN21EmuGSS_TCProgram129_1C2EjPKcff
FNDA:1,_ZN21EmuGSS_TCProgram129_1C2EjPKcff
FN:23,_ZN21EmuGSS_TCProgram129_114BuildTCAppDataER13tc_descriptor
FNDA:1,_ZN21EmuGSS_TCProgram129_114BuildTCAppDataER13tc_descriptor
FN:28,_ZN21EmuGSS_TCProgram129_2C2EjPKcff
FNDA:2,_ZN21EmuGSS_TCProgram129_2C2EjPKcff
FN:35,_ZN21EmuGSS_TCProgram129_214BuildTCAppDataER13tc_descriptor
FNDA:2,_ZN21EmuGSS_TCProgram129_214BuildTCAppDataER13tc_descriptor
DA:16,1
DA:17,1
DA:18,1
DA:19,1
DA:20,1
DA:21,1
DA:23,1
DA:24,1
DA:25,1
DA:26,1
DA:28,2
DA:29,2
DA:30,2
DA:31,2
DA:32,2
DA:33,2
DA:35,2
DA:36,2
DA:37,2
DA:38,2
end_of_record
TN:
SF:/home/atcsol/git/PROYECTO_OBDH/uah_exp_freertos_project_2024/llsw/emu_gss/src/emu_gss_pus_service9.cpp
FN:13,_ZN21EmuGSS_TCProgram9_129C2EjPKcj
FNDA:0,_ZN21EmuGSS_TCProgram9_129C2EjPKcj
FN:23,_ZN21EmuGSS_TCProgram9_12914BuildTCAppDataER13tc_descriptor
FNDA:0,_ZN21EmuGSS_TCProgram9_12914BuildTCAppDataER13tc_descriptor
DA:13,0
DA:15,0
DA:17,0
DA:19,0
DA:20,0
DA:21,0
DA:23,0
DA:25,0
DA:27,0
end_of_record
TN:
SF:/home/atcsol/git/PROYECTO_OBDH/uah_exp_freertos_project_2024/llsw/emu_hw_timecode_drv/src/emu_hw_timecode_drv.cpp
FN:17,_Z23EmuHwTimeCodePassSecondv
FNDA:50,_Z23EmuHwTimeCodePassSecondv
FN:29,_Z30EmuHwTimeCodeSetNextUniTimeY2Kj
FNDA:0,_Z30EmuHwTimeCodeSetNextUniTimeY2Kj
FN:34,_Z33EmuHwTimeCodeGetCurrentUniTimeY2Kv
FNDA:100,_Z33EmuHwTimeCodeGetCurrentUniTimeY2Kv
DA:17,50
DA:19,50
DA:21,50
DA:25,50
DA:27,50
DA:29,0
DA:31,0
DA:32,0
DA:34,100
DA:36,100
end_of_record
TN:
SF:/home/atcsol/git/PROYECTO_OBDH/uah_exp_freertos_project_2024/service_libraries/edroomsl/edroombp/include/public/edroombp.h
FN:192,_ZN12Pr_SemaphoreD2Ev
FNDA:0,_ZN12Pr_SemaphoreD2Ev
FN:310,_ZN15Pr_SemaphoreRec4WaitEv
FNDA:0,_ZN15Pr_SemaphoreRec4WaitEv
FN:319,_ZN15Pr_SemaphoreRec6SignalEv
FNDA:0,_ZN15Pr_SemaphoreRec6SignalEv
FN:337,_ZN15Pr_SemaphoreRecD2Ev
FNDA:0,_ZN15Pr_SemaphoreRecD2Ev
DA:192,0
DA:194,0
DA:195,0
DA:310,0
DA:319,0
DA:337,0
end_of_record
SF:/home/atcsol/git/PROYECTO_OBDH/uah_exp_freertos_project_2024/llsw/tmtc_dyn_mem/src/tmtc_pool.cpp
FN:36,_Z14init_tmtc_poolv
FNDA:1,_Z14init_tmtc_poolv
FN:48,_Z15tmtc_pool_allocv
FNDA:45,_Z15tmtc_pool_allocv
FN:75,_Z14tmtc_pool_freePh
FNDA:45,_Z14tmtc_pool_freePh
DA:36,1
DA:39,21
DA:40,20
DA:45,1
DA:48,45
DA:50,45
DA:53,45
DA:56,57
DA:58,57
DA:59,45
DA:60,45
DA:61,45
DA:66,45
DA:70,45
DA:75,45
DA:80,45
DA:81,45
DA:83,45
DA:85,45
DA:86,45
DA:87,45
DA:90,45
end_of_record
TN:
SF:/home/atcsol/git/PROYECTO_OBDH/uah_exp_freertos_project_2024/llsw/tc_queue_drv/src/tc_queue_drv.cpp
FN:26,_Z12TCQueue_InitPFvvES0_
FNDA:1,_Z12TCQueue_InitPFvvES0_
FN:35,_Z14TCQueue_IsFullv
FNDA:0,_Z14TCQueue_IsFullv
FN:51,_Z15TCQueue_IsEmptyv
FNDA:0,_Z15TCQueue_IsEmptyv
FN:67,_Z23TCQueue_GetTailTCMemoryv
FNDA:4,_Z23TCQueue_GetTailTCMemoryv
FN:87,_Z23TCQueue_TailTCCompletedt
FNDA:4,_Z23TCQueue_TailTCCompletedt
FN:104,_Z23TCQueue_GetHeadTCMemoryRt
FNDA:4,_Z23TCQueue_GetHeadTCMemoryRt
FN:123,_Z23TCQueue_HeadTCExtractedv
FNDA:4,_Z23TCQueue_HeadTCExtractedv
DA:26,1
DA:28,1
DA:29,1
DA:30,1
DA:31,1
DA:33,1
DA:35,0
DA:40,0
DA:42,0
DA:44,0
DA:48,0
DA:51,0
DA:56,0
DA:58,0
DA:60,0
DA:64,0
DA:67,4
DA:73,4
DA:75,4
DA:76,4
DA:78,4
DA:82,4
DA:84,4
DA:87,4
DA:90,4
DA:94,4
DA:96,4
DA:98,4
DA:102,4
DA:104,4
DA:110,4
DA:112,4
DA:114,4
DA:116,4
DA:120,4
DA:123,4
DA:127,4
DA:129,4
DA:130,4
DA:132,4
DA:136,4
end_of_record
TN:
SF:/home/atcsol/git/PROYECTO_OBDH/uah_exp_freertos_project_2024/service_libraries/edroomsl/edroombp/include/public/edroombp.h
FN:192,_ZN12Pr_SemaphoreD2Ev
FNDA:0,_ZN12Pr_SemaphoreD2Ev
FN:310,_ZN15Pr_SemaphoreRec4WaitEv
FNDA:0,_ZN15Pr_SemaphoreRec4WaitEv
FN:319,_ZN15Pr_SemaphoreRec6SignalEv
FNDA:0,_ZN15Pr_SemaphoreRec6SignalEv
FN:337,_ZN15Pr_SemaphoreRecD2Ev
FNDA:0,_ZN15Pr_SemaphoreRecD2Ev
DA:192,0
DA:194,0
DA:195,0
DA:310,0
DA:319,0
DA:337,0
end_of_record
SF:/home/atcsol/git/PROYECTO_OBDH/uah_exp_freertos_project_2024/asw/dataclasses/CDTMList/include/public/cdtmlist.h
FN:43,_ZN8CDTMList11GetTMNumberEv
FNDA:594,_ZN8CDTMList11GetTMNumberEv
FN:45,_ZN8CDTMList5GetTMEh
FNDA:41,_ZN8CDTMList5GetTMEh
FN:47,_ZN8CDTMList6GetpTMEh
FNDA:41,_ZN8CDTMList6GetpTMEh
DA:43,594
DA:45,41
DA:47,41
end_of_record
SF:/home/atcsol/git/PROYECTO_OBDH/uah_exp_freertos_project_2024/llsw/emu_sc_channel_drv/src/emu_sc_channel_drv.cpp
FN:15,_Z12LockFunctionv
FNDA:16,_Z12LockFunctionv
FN:18,_Z14UnlockFunctionv
FNDA:16,_Z14UnlockFunctionv
FN:22,_Z15SC_Channel_InitP19CEDROOMIRQInterface
FNDA:1,_Z15SC_Channel_InitP19CEDROOMIRQInterface
FN:28,_Z17SC_Channel_RxDatav
FNDA:0,_Z17SC_Channel_RxDatav
FN:33,_Z20SC_Channel_GetNextTCP11CDTCHandler
FNDA:4,_Z20SC_Channel_GetNextTCP11CDTCHandler
FN:53,_Z27SC_Channel_HandlePendingTCsv
FNDA:0,_Z27SC_Channel_HandlePendingTCsv
FN:61,_Z15SC_Channel_TxTMPK13tm_descriptor
FNDA:41,_Z15SC_Channel_TxTMPK13tm_descriptor
FN:67,_Z19SC_Channel_TxTMListP8CDTMList
FNDA:553,_Z19SC_Channel_TxTMListP8CDTMList
DA:15,16
DA:16,16
DA:17,16
DA:18,16
DA:19,16
DA:20,16
DA:22,1
DA:23,1
DA:25,1
DA:26,1
DA:28,0
DA:30,0
DA:33,4
DA:38,4
DA:40,4
DA:41,4
DA:43,76
DA:44,72
DA:48,4
DA:51,4
DA:53,0
DA:56,0
DA:58,0
DA:59,0
DA:61,41
DA:63,41
DA:65,41
DA:67,553
DA:68,594
DA:70,41
DA:72,41
DA:74,553
end_of_record
TN:
SF:/home/atcsol/git/PROYECTO_OBDH/uah_exp_freertos_project_2024/llsw/emu_uah_exp_kinematics/src/emu_uah_exp_kinematics.cpp
FN:12,_ZN18UAHExpEmuKinematic12EmuKinematicEfff
FNDA:496,_ZN18UAHExpEmuKinematic12EmuKinematicEfff
DA:12,496
DA:15,496
DA:22,496
DA:23,496
DA:24,496
DA:27,496
DA:30,496
DA:31,496
DA:32,496
DA:33,496
DA:36,496
DA:37,496
DA:38,0
DA:39,496
DA:40,496
DA:41,0
DA:42,496
DA:43,496
DA:44,0
DA:47,496
DA:48,496
end_of_record
TN:
SF:/home/atcsol/git/PROYECTO_OBDH/uah_exp_freertos_project_2024/service_libraries/icuasw_pus_services/src/icuasw_pus_service1.cpp
FN:39,_ZN11PUSService110IsCRCValidER11CDTCHandler
FNDA:4,_ZN11PUSService110IsCRCValidER11CDTCHandler
FN:51,_ZN11PUSService111IsAPIDValidER11CDTCHandler
FNDA:4,_ZN11PUSService111IsAPIDValidER11CDTCHandler
FN:60,_ZN11PUSService115IsSourceIDValidER11CDTCHandler
FNDA:4,_ZN11PUSService115IsSourceIDValidER11CDTCHandler
FN:74,_ZN11PUSService116TryTCAcceptationER11CDTCHandler
FNDA:4,_ZN11PUSService116TryTCAcceptationER11CDTCHandler
FN:252,_ZN11PUSService119CompleteTCRejectionER11CDTCHandler
FNDA:0,_ZN11PUSService119CompleteTCRejectionER11CDTCHandler
FN:258,_ZN11PUSService111BuildTM_1_1ER11CDTCHandlerR8CDTMList
FNDA:4,_ZN11PUSService111BuildTM_1_1ER11CDTCHandlerR8CDTMList
FN:269,_ZN11PUSService111BuildTM_1_2ER11CDTCHandlerR8CDTMList
FNDA:0,_ZN11PUSService111BuildTM_1_2ER11CDTCHandlerR8CDTMList
FN:324,_ZN11PUSService111BuildTM_1_7ER11CDTCHandlerR8CDTMList
FNDA:3,_ZN11PUSService111BuildTM_1_7ER11CDTCHandlerR8CDTMList
FN:335,_ZN11PUSService130BuildTM_1_8_TC_3_X_SIDNotValidER11CDTCHandlerR8CDTMListt
FNDA:0,_ZN11PUSService130BuildTM_1_8_TC_3_X_SIDNotValidER11CDTCHandlerR8CDTMListt
FN:349,_ZN11PUSService131BuildTM_1_8_TC_20_X_PIDNotValidER11CDTCHandlerR8CDTMListt
FNDA:0,_ZN11PUSService131BuildTM_1_8_TC_20_X_PIDNotValidER11CDTCHandlerR8CDTMListt
FN:363,_ZN11PUSService129BuildTM_1_8_TC_5_X_RIDUnknownER11CDTCHandlerR8CDTMListt
FNDA:0,_ZN11PUSService129BuildTM_1_8_TC_5_X_RIDUnknownER11CDTCHandlerR8CDTMListt
FN:376,_ZN11PUSService135BuildTM_1_8_TC_12_X_PMONIDUndefinedER11CDTCHandlerR8CDTMListt
FNDA:0,_ZN11PUSService135BuildTM_1_8_TC_12_X_PMONIDUndefinedER11CDTCHandlerR8CDTMListt
FN:389,_ZN11PUSService133BuildTM_1_8_TC_12_X_PMONIDDefinedER11CDTCHandlerR8CDTMListt
FNDA:0,_ZN11PUSService133BuildTM_1_8_TC_12_X_PMONIDDefinedER11CDTCHandlerR8CDTMListt
FN:403,_ZN11PUSService134BuildTM_1_8_TC_12_X_PMONIDNotValidER11CDTCHandlerR8CDTMListt
FNDA:0,_ZN11PUSService134BuildTM_1_8_TC_12_X_PMONIDNotValidER11CDTCHandlerR8CDTMListt
FN:417,_ZN11PUSService135BuildTM_1_8_TC_19_X_EvActionEnabledER11CDTCHandlerR8CDTMListt
FNDA:0,_ZN11PUSService135BuildTM_1_8_TC_19_X_EvActionEnabledER11CDTCHandlerR8CDTMListt
FN:431,_ZN11PUSService132BuildTM_1_8_TC_19_1_MaxEvActionsER11CDTCHandlerR8CDTMListt
FNDA:0,_ZN11PUSService132BuildTM_1_8_TC_19_1_MaxEvActionsER11CDTCHandlerR8CDTMListt
FN:445,_ZN11PUSService136BuildTM_1_8_TC_19_1_EvActionRejectedER11CDTCHandlerR8CDTMListt
FNDA:0,_ZN11PUSService136BuildTM_1_8_TC_19_1_EvActionRejectedER11CDTCHandlerR8CDTMListt
FN:459,_ZN11PUSService138BuildTM_1_8_TC_19_X_EvActionNotDefinedER11CDTCHandlerR8CDTMListt
FNDA:0,_ZN11PUSService138BuildTM_1_8_TC_19_X_EvActionNotDefinedER11CDTCHandlerR8CDTMListt
FN:473,_ZN11PUSService133BuildTM_1_8_TC_2_X_DeviceNotValidER11CDTCHandlerR8CDTMListh
FNDA:0,_ZN11PUSService133BuildTM_1_8_TC_2_X_DeviceNotValidER11CDTCHandlerR8CDTMListh
FN:486,_ZN11PUSService131BuildTM_1_8_TC_129_1_CVNotValidER11CDTCHandlerR8CDTMListf
FNDA:0,_ZN11PUSService131BuildTM_1_8_TC_129_1_CVNotValidER11CDTCHandlerR8CDTMListf
FN:500,_ZN11PUSService131BuildTM_1_8_TC_129_2_KPNotValidER11CDTCHandlerR8CDTMListf
FNDA:1,_ZN11PUSService131BuildTM_1_8_TC_129_2_KPNotValidER11CDTCHandlerR8CDTMListf
DA:39,4
DA:41,4
DA:42,4
DA:45,4
DA:47,4
DA:51,4
DA:54,4
DA:56,4
DA:60,4
DA:63,4
DA:66,4
DA:67,4
DA:68,8
DA:70,4
DA:74,4
DA:76,4
DA:78,4
DA:80,0
DA:82,4
DA:84,0
DA:86,4
DA:88,0
DA:92,4
DA:93,4
DA:95,4
DA:96,0
DA:97,0
DA:98,0
DA:99,0
DA:100,0
DA:101,0
DA:102,0
DA:104,0
DA:105,0
DA:106,0
DA:107,0
DA:109,0
DA:110,0
DA:111,0
DA:112,0
DA:114,0
DA:115,0
DA:116,0
DA:117,0
DA:119,0
DA:120,0
DA:122,0
DA:123,0
DA:125,0
DA:126,0
DA:127,0
DA:128,0
DA:130,0
DA:131,0
DA:132,0
DA:134,0
DA:135,0
DA:136,0
DA:138,0
DA:139,0
DA:141,0
DA:142,0
DA:144,0
DA:145,0
DA:146,0
DA:147,0
DA:149,0
DA:150,0
DA:151,0
DA:153,0
DA:154,0
DA:155,0
DA:156,0
DA:158,0
DA:159,0
DA:160,0
DA:161,0
DA:163,0
DA:164,0
DA:165,0
DA:167,0
DA:168,0
DA:169,0
DA:171,0
DA:172,0
DA:173,0
DA:174,0
DA:176,0
DA:177,0
DA:178,0
DA:179,0
DA:181,0
DA:182,0
DA:183,0
DA:185,0
DA:186,0
DA:187,0
DA:189,0
DA:190,0
DA:192,0
DA:194,0
DA:195,0
DA:196,0
DA:197,0
DA:199,0
DA:200,0
DA:201,0
DA:202,0
DA:204,0
DA:205,0
DA:206,0
DA:208,0
DA:209,0
DA:211,0
DA:212,0
DA:214,0
DA:215,1
DA:216,1
DA:217,1
DA:219,1
DA:220,1
DA:222,0
DA:223,0
DA:225,1
DA:226,3
DA:227,3
DA:228,1
DA:230,1
DA:231,1
DA:232,2
DA:234,2
DA:235,2
DA:236,0
DA:237,0
DA:239,3
DA:240,0
DA:242,0
DA:243,0
DA:248,4
DA:250,4
DA:252,0
DA:254,0
DA:256,0
DA:258,4
DA:260,4
DA:262,4
DA:263,4
DA:265,4
DA:267,4
DA:269,0
DA:271,0
DA:272,0
DA:274,0
DA:275,0
DA:277,0
DA:279,0
DA:281,0
DA:283,0
DA:284,0
DA:286,0
DA:288,0
DA:290,0
DA:292,0
DA:294,0
DA:296,0
DA:298,0
DA:300,0
DA:302,0
DA:304,0
DA:306,0
DA:308,0
DA:310,0
DA:312,0
DA:314,0
DA:316,0
DA:320,0
DA:322,0
DA:324,3
DA:326,3
DA:328,3
DA:329,3
DA:331,3
DA:333,3
DA:335,0
DA:338,0
DA:340,0
DA:341,0
DA:342,0
DA:343,0
DA:345,0
DA:347,0
DA:349,0
DA:352,0
DA:354,0
DA:355,0
DA:356,0
DA:357,0
DA:359,0
DA:361,0
DA:363,0
DA:366,0
DA:368,0
DA:369,0
DA:370,0
DA:371,0
DA:373,0
DA:374,0
DA:376,0
DA:378,0
DA:380,0
DA:381,0
DA:382,0
DA:383,0
DA:385,0
DA:387,0
DA:389,0
DA:392,0
DA:394,0
DA:395,0
DA:396,0
DA:397,0
DA:399,0
DA:401,0
DA:403,0
DA:406,0
DA:408,0
DA:409,0
DA:410,0
DA:411,0
DA:413,0
DA:415,0
DA:417,0
DA:420,0
DA:422,0
DA:423,0
DA:424,0
DA:425,0
DA:427,0
DA:429,0
DA:431,0
DA:434,0
DA:436,0
DA:437,0
DA:438,0
DA:439,0
DA:441,0
DA:443,0
DA:445,0
DA:448,0
DA:450,0
DA:451,0
DA:452,0
DA:453,0
DA:455,0
DA:457,0
DA:459,0
DA:462,0
DA:464,0
DA:465,0
DA:466,0
DA:467,0
DA:469,0
DA:471,0
DA:473,0
DA:476,0
DA:478,0
DA:479,0
DA:480,0
DA:481,0
DA:483,0
DA:485,0
DA:486,0
DA:489,0
DA:491,0
DA:492,0
DA:493,0
DA:494,0
DA:496,0
DA:498,0
DA:500,1
DA:503,1
DA:505,1
DA:506,1
DA:507,1
DA:508,1
DA:510,1
DA:512,1
end_of_record
SF:/home/atcsol/git/PROYECTO_OBDH/uah_exp_freertos_project_2024/asw/dataclasses/CDTCHandler/include/public/cdtchandler.h
FN:100,_ZN11CDTCHandler19SetExecCtrlAsPrioTCEv
FNDA:0,_ZN11CDTCHandler19SetExecCtrlAsPrioTCEv
FN:110,_ZN11CDTCHandler21SetExecCtrlAsRebootTCEv
FNDA:1,_ZN11CDTCHandler21SetExecCtrlAsRebootTCEv
FN:120,_ZN11CDTCHandler22SetExecCtrlAsHK_FDIRTCEv
FNDA:0,_ZN11CDTCHandler22SetExecCtrlAsHK_FDIRTCEv
FN:130,_ZN11CDTCHandler18SetExecCtrlAsBKGTCEv
FNDA:0,_ZN11CDTCHandler18SetExecCtrlAsBKGTCEv
FN:143,_ZN11CDTCHandler23SetExecCtrlAsGuidanceTCEv
FNDA:3,_ZN11CDTCHandler23SetExecCtrlAsGuidanceTCEv
FN:158,_ZN11CDTCHandler20SetAcceptationStatusE20TTCAcceptationStatus
FNDA:4,_ZN11CDTCHandler20SetAcceptationStatusE20TTCAcceptationStatus
FN:169,_ZN11CDTCHandler20GetAcceptationStatusEv
FNDA:0,_ZN11CDTCHandler20GetAcceptationStatusEv
DA:100,0
DA:101,0
DA:103,0
DA:110,1
DA:112,1
DA:113,1
DA:120,0
DA:122,0
DA:123,0
DA:130,0
DA:132,0
DA:133,0
DA:143,3
DA:147,3
DA:149,3
DA:158,4
DA:160,4
DA:162,4
DA:169,0
DA:171,0
end_of_record
TN:
SF:/home/atcsol/git/PROYECTO_OBDH/uah_exp_freertos_project_2024/service_libraries/icuasw_pus_services/src/icuasw_pus_service3.cpp
FN:25,_ZN11PUSService34InitEv
FNDA:1,_ZN11PUSService34InitEv
FN:30,_ZN11PUSService36ExecTCER11CDTCHandlerR8CDTMList
FNDA:0,_ZN11PUSService36ExecTCER11CDTCHandlerR8CDTMList
FN:47,_ZN11PUSService311GetSIDIndexEtRh
FNDA:0,_ZN11PUSService311GetSIDIndexEtRh
FN:58,_ZN11PUSService318ExecEnableConfigTCER11CDTCHandlerR8CDTMListb
FNDA:0,_ZN11PUSService318ExecEnableConfigTCER11CDTCHandlerR8CDTMListb
FN:74,_ZN11PUSService39Exec3_5TCER11CDTCHandlerR8CDTMList
FNDA:0,_ZN11PUSService39Exec3_5TCER11CDTCHandlerR8CDTMList
FN:79,_ZN11PUSService39Exec3_6TCER11CDTCHandlerR8CDTMList
FNDA:0,_ZN11PUSService39Exec3_6TCER11CDTCHandlerR8CDTMList
FN:84,_ZN11PUSService310Exec3_31TCER11CDTCHandlerR8CDTMList
FNDA:0,_ZN11PUSService310Exec3_31TCER11CDTCHandlerR8CDTMList
FN:103,_ZN11PUSService34DoHKER8CDTMList
FNDA:49,_ZN11PUSService34DoHKER8CDTMList
FN:128,_ZN11PUSService312BuildTM_3_25ER8CDTMListR10HKConfig_t
FNDA:33,_ZN11PUSService312BuildTM_3_25ER8CDTMListR10HKConfig_t
DA:25,1
DA:27,1
DA:28,1
DA:30,0
DA:32,0
DA:33,0
DA:34,0
DA:35,0
DA:36,0
DA:37,0
DA:38,0
DA:39,0
DA:40,0
DA:41,0
DA:42,0
DA:45,0
DA:47,0
DA:48,0
DA:49,0
DA:50,0
DA:51,0
DA:52,0
DA:55,0
DA:58,0
DA:62,0
DA:64,0
DA:65,0
DA:66,0
DA:67,0
DA:69,0
DA:72,0
DA:74,0
DA:76,0
DA:78,0
DA:79,0
DA:81,0
DA:83,0
DA:84,0
DA:87,0
DA:89,0
DA:90,0
DA:91,0
DA:93,0
DA:95,0
DA:98,0
DA:103,49
DA:107,49
DA:112,49
DA:114,441
DA:115,392
DA:116,98
DA:117,98
DA:119,33
DA:121,33
DA:126,49
DA:128,33
DA:130,33
DA:132,33
DA:134,189
DA:135,156
DA:136,156
DA:137,156
DA:141,33
DA:143,33
end_of_record
TN:
SF:/home/atcsol/git/PROYECTO_OBDH/uah_exp_freertos_project_2024/service_libraries/icuasw_pus_services/src/icuasw_pus_service2.cpp
FN:11,_ZN11PUSService26ExecTCER11CDTCHandlerR8CDTMList
FNDA:0,_ZN11PUSService26ExecTCER11CDTCHandlerR8CDTMList
FN:25,_ZN11PUSService29Exec2_1TCER11CDTCHandlerR8CDTMList
FNDA:0,_ZN11PUSService29Exec2_1TCER11CDTCHandlerR8CDTMList
DA:11,0
DA:13,0
DA:14,0
DA:16,0
DA:18,0
DA:19,0
DA:20,0
DA:23,0
DA:25,0
DA:28,0
DA:31,0
DA:33,0
DA:35,0
DA:37,0
DA:44,0
DA:46,0
DA:50,0
DA:54,0
DA:56,0
end_of_record
TN:
SF:/home/atcsol/git/PROYECTO_OBDH/uah_exp_freertos_project_2024/service_libraries/icuasw_pus_services/src/icuasw_pus_service9.cpp
FN:13,_ZN11PUSService96ExecTCER11CDTCHandlerR8CDTMList
FNDA:0,_ZN11PUSService96ExecTCER11CDTCHandlerR8CDTMList
FN:25,_ZN11PUSService920GetCurrentUniTimeY2KEv
FNDA:0,_ZN11PUSService920GetCurrentUniTimeY2KEv
DA:13,0
DA:15,0
DA:16,0
DA:17,0
DA:18,0
DA:19,0
DA:23,0
DA:25,0
DA:27,0
end_of_record
TN:
SF:/home/atcsol/git/PROYECTO_OBDH/uah_exp_freertos_project_2024/service_libraries/icuasw_pus_services/src/icuasw_pus_service12.cpp
FN:33,_ZN12PUSService126ExecTCER11CDTCHandlerR8CDTMList
FNDA:0,_ZN12PUSService126ExecTCER11CDTCHandlerR8CDTMList
FN:54,_ZN12PUSService1210Exec12_5TCER11CDTCHandlerR8CDTMList
FNDA:0,_ZN12PUSService1210Exec12_5TCER11CDTCHandlerR8CDTMList
FN:122,_ZN12PUSService1210Exec12_1TCER11CDTCHandlerR8CDTMList
FNDA:0,_ZN12PUSService1210Exec12_1TCER11CDTCHandlerR8CDTMList
FN:144,_ZN12PUSService1210Exec12_2TCER11CDTCHandlerR8CDTMList
FNDA:0,_ZN12PUSService1210Exec12_2TCER11CDTCHandlerR8CDTMList
FN:165,_ZN12PUSService1212DoMonitoringER11CDEventList
FNDA:49,_ZN12PUSService1212DoMonitoringER11CDEventList
FN:256,_ZN12PUSService1212TriggerEventER11CDEventListtttt
FNDA:0,_ZN12PUSService1212TriggerEventER11CDEventListtttt
FN:269,_ZN12PUSService1212UpdateStatusEt13CheckStatus_t
FNDA:0,_ZN12PUSService1212UpdateStatusEt13CheckStatus_t
DA:33,0
DA:35,0
DA:37,0
DA:38,0
DA:39,0
DA:40,0
DA:41,0
DA:42,0
DA:43,0
DA:44,0
DA:45,0
DA:47,0
DA:48,0
DA:52,0
DA:54,0
DA:64,0
DA:66,0
DA:68,0
DA:71,0
DA:73,0
DA:75,0
DA:76,0
DA:77,0
DA:78,0
DA:79,0
DA:81,0
DA:82,0
DA:83,0
DA:84,0
DA:87,0
DA:89,0
DA:92,0
DA:93,0
DA:95,0
DA:98,0
DA:102,0
DA:108,0
DA:115,0
DA:120,0
DA:122,0
DA:126,0
DA:128,0
DA:129,0
DA:130,0
DA:131,0
DA:133,0
DA:136,0
DA:142,0
DA:144,0
DA:148,0
DA:150,0
DA:151,0
DA:152,0
DA:154,0
DA:157,0
DA:163,0
DA:165,49
DA:169,49
DA:173,441
DA:175,392
DA:178,0
DA:179,0
DA:182,0
DA:183,0
DA:186,0
DA:189,0
DA:192,0
DA:194,0
DA:198,0
DA:199,0
DA:202,0
DA:203,0
DA:205,0
DA:208,0
DA:211,0
DA:212,0
DA:215,0
DA:216,0
DA:218,0
DA:221,0
DA:225,0
DA:229,0
DA:238,0
DA:239,0
DA:240,0
DA:243,0
DA:249,0
DA:254,49
DA:256,0
DA:260,0
DA:261,0
DA:262,0
DA:263,0
DA:264,0
DA:265,0
DA:267,0
DA:269,0
DA:272,0
DA:274,0
DA:275,0
DA:278,0
DA:281,0
DA:282,0
DA:285,0
end_of_record
SF:/home/atcsol/git/PROYECTO_OBDH/uah_exp_freertos_project_2024/asw/dataclasses/CDEventList/include/public/cdeventlist.h
FN:25,_ZN11CDEventList8AddEventEPK11EventInfo_t
FNDA:0,_ZN11CDEventList8AddEventEPK11EventInfo_t
DA:25,0
DA:27,0
DA:28,0
DA:31,0
DA:32,0
DA:34,0
DA:37,0
DA:38,0
DA:40,0
DA:42,0
end_of_record
TN:
SF:/home/atcsol/git/PROYECTO_OBDH/uah_exp_freertos_project_2024/service_libraries/icuasw_pus_services/src/icuasw_pus_service5.cpp
FN:14,_ZN11PUSService523GetRIDEnableConfigIndexEt
FNDA:0,_ZN11PUSService523GetRIDEnableConfigIndexEt
FN:40,_ZN11PUSService524GetRIDEnableConfigOffsetEt
FNDA:0,_ZN11PUSService524GetRIDEnableConfigOffsetEt
FN:49,_ZN11PUSService512IsIndexValidEh
FNDA:0,_ZN11PUSService512IsIndexValidEh
FN:56,_ZN11PUSService510GetRIDTypeEt
FNDA:0,_ZN11PUSService510GetRIDTypeEt
FN:92,_ZN11PUSService512IsRIDEnabledEt
FNDA:0,_ZN11PUSService512IsRIDEnabledEt
FN:112,_ZN11PUSService517BuildEventListTMsER11CDEventListR8CDTMList
FNDA:49,_ZN11PUSService517BuildEventListTMsER11CDEventListR8CDTMList
FN:141,_ZN11PUSService59Exec5_5TCER11CDTCHandlerR8CDTMList
FNDA:0,_ZN11PUSService59Exec5_5TCER11CDTCHandlerR8CDTMList
FN:164,_ZN11PUSService59Exec5_6TCER11CDTCHandlerR8CDTMList
FNDA:0,_ZN11PUSService59Exec5_6TCER11CDTCHandlerR8CDTMList
FN:187,_ZN11PUSService56ExecTCER11CDTCHandlerR8CDTMList
FNDA:0,_ZN11PUSService56ExecTCER11CDTCHandlerR8CDTMList
DA:14,0
DA:16,0
DA:18,0
DA:20,0
DA:21,0
DA:22,0
DA:23,0
DA:24,0
DA:25,0
DA:26,0
DA:27,0
DA:28,0
DA:29,0
DA:30,0
DA:31,0
DA:32,0
DA:33,0
DA:34,0
DA:37,0
DA:40,0
DA:44,0
DA:46,0
DA:49,0
DA:52,0
DA:56,0
DA:58,0
DA:59,0
DA:60,0
DA:62,0
DA:63,0
DA:64,0
DA:65,0
DA:67,0
DA:68,0
DA:69,0
DA:70,0
DA:72,0
DA:73,0
DA:74,0
DA:75,0
DA:77,0
DA:78,0
DA:79,0
DA:80,0
DA:83,0
DA:85,0
DA:86,0
DA:89,0
DA:92,0
DA:94,0
DA:98,0
DA:100,0
DA:102,0
DA:104,0
DA:105,0
DA:109,0
DA:112,49
DA:116,49
DA:117,49
DA:119,0
DA:121,0
DA:123,0
DA:125,0
DA:127,0
DA:128,0
DA:129,0
DA:130,0
DA:132,0
DA:138,49
DA:141,0
DA:147,0
DA:148,0
DA:149,0
DA:151,0
DA:153,0
DA:155,0
DA:159,0
DA:161,0
DA:164,0
DA:170,0
DA:172,0
DA:173,0
DA:175,0
DA:177,0
DA:179,0
DA:183,0
DA:185,0
DA:187,0
DA:189,0
DA:191,0
DA:193,0
DA:194,0
DA:195,0
DA:197,0
DA:198,0
DA:199,0
DA:201,0
DA:203,0
end_of_record
SF:/home/atcsol/git/PROYECTO_OBDH/uah_exp_freertos_project_2024/asw/dataclasses/CDEventList/include/public/cdeventlist.h
FN:60,_ZN11CDEventList12GetEventInfoEh
FNDA:0,_ZN11CDEventList12GetEventInfoEh
FN:76,_ZN11CDEventList17GetNumberOfEventsEv
FNDA:0,_ZN11CDEventList17GetNumberOfEventsEv
DA:60,0
DA:62,0
DA:63,0
DA:64,0
DA:67,0
DA:76,0
DA:77,0
end_of_record
TN:
SF:/home/atcsol/git/PROYECTO_OBDH/uah_exp_freertos_project_2024/service_libraries/icuasw_pus_services/src/icuasw_pus_services.cpp
FN:16,_ZN14SystemDataPool4InitEv
FNDA:1,_ZN14SystemDataPool4InitEv
FN:21,_ZN14SystemDataPool12SetFromInt16Eis
FNDA:1984,_ZN14SystemDataPool12SetFromInt16Eis
FN:31,_ZN17PUSPrioTCExecutor6ExecTCER11CDTCHandlerR8CDTMListR11CDEventList
FNDA:1,_ZN17PUSPrioTCExecutor6ExecTCER11CDTCHandlerR8CDTMListR11CDEventList
FN:55,_ZN22PUS_HK_FDIR_TCExecutor6ExecTCER11CDTCHandlerR8CDTMListR11CDEventList
FNDA:0,_ZN22PUS_HK_FDIR_TCExecutor6ExecTCER11CDTCHandlerR8CDTMListR11CDEventList
FN:80,_ZN17PUS_BKGTCExecutor6ExecTCER11CDTCHandlerR8CDTMListR11CDEventList
FNDA:0,_ZN17PUS_BKGTCExecutor6ExecTCER11CDTCHandlerR8CDTMListR11CDEventList
FN:95,_ZN22PUS_GuidanceTCExecutor6ExecTCER11CDTCHandlerR8CDTMListR11CDEventList
FNDA:3,_ZN22PUS_GuidanceTCExecutor6ExecTCER11CDTCHandlerR8CDTMListR11CDEventList
DA:16,1
DA:17,65
DA:18,64
DA:19,1
DA:21,1984
DA:23,1984
DA:25,1984
DA:26,1984
DA:29,1984
DA:31,1
DA:34,1
DA:35,1
DA:37,0
DA:38,0
DA:39,0
DA:40,0
DA:41,0
DA:42,0
DA:43,0
DA:44,0
DA:45,0
DA:46,1
DA:47,1
DA:48,1
DA:49,0
DA:50,0
DA:52,1
DA:53,1
DA:55,0
DA:58,0
DA:60,0
DA:62,0
DA:63,0
DA:64,0
DA:65,0
DA:66,0
DA:67,0
DA:68,0
DA:69,0
DA:70,0
DA:71,0
DA:72,0
DA:73,0
DA:74,0
DA:75,0
DA:77,0
DA:78,0
DA:80,0
DA:82,0
DA:84,0
DA:85,0
DA:86,0
DA:87,0
DA:88,0
DA:89,0
DA:91,0
DA:93,0
DA:95,3
DA:97,3
DA:99,3
DA:100,3
DA:101,3
DA:102,3
DA:103,0
DA:104,0
DA:106,3
DA:108,3
end_of_record
TN:
SF:/home/atcsol/git/PROYECTO_OBDH/uah_exp_freertos_project_2024/service_libraries/icuasw_pus_services/src/icuasw_pus_service20.cpp
FN:12,_ZN12PUSService206ExecTCER11CDTCHandlerR8CDTMList
FNDA:0,_ZN12PUSService206ExecTCER11CDTCHandlerR8CDTMList
FN:28,_ZN12PUSService2010Exec20_3TCER11CDTCHandlerR8CDTMList
FNDA:0,_ZN12PUSService2010Exec20_3TCER11CDTCHandlerR8CDTMList
FN:43,_ZN12PUSService2010Exec20_1TCER11CDTCHandlerR8CDTMList
FNDA:0,_ZN12PUSService2010Exec20_1TCER11CDTCHandlerR8CDTMList
DA:12,0
DA:14,0
DA:15,0
DA:16,0
DA:17,0
DA:18,0
DA:19,0
DA:20,0
DA:22,0
DA:26,0
DA:28,0
DA:30,0
DA:32,0
DA:34,0
DA:35,0
DA:37,0
DA:39,0
DA:42,0
DA:43,0
DA:45,0
DA:49,0
DA:50,0
DA:52,0
DA:53,0
DA:54,0
DA:56,0
DA:57,0
DA:61,0
DA:64,0
end_of_record
TN:
SF:/home/atcsol/git/PROYECTO_OBDH/uah_exp_freertos_project_2024/service_libraries/icuasw_pus_services/include/icuasw_pus_services/icuasw_pus_service19.h
end_of_record
SF:/home/atcsol/git/PROYECTO_OBDH/uah_exp_freertos_project_2024/asw/dataclasses/CDEvAction/include/public/cdevaction.h
FN:24,_ZN10CDEvAction17SetActionTCPacketER11CDTCHandler
FNDA:0,_ZN10CDEvAction17SetActionTCPacketER11CDTCHandler
FN:29,_ZN10CDEvActionC2Ev
FNDA:44,_ZN10CDEvActionC2Ev
DA:24,0
DA:26,0
DA:27,0
DA:29,44
DA:30,44
DA:31,44
DA:33,44
end_of_record
SF:/home/atcsol/git/PROYECTO_OBDH/uah_exp_freertos_project_2024/asw/dataclasses/CDTCHandler/include/public/cdtchandler.h
FN:193,_ZN11CDTCHandler10IsAcceptedEv
FNDA:4,_ZN11CDTCHandler10IsAcceptedEv
DA:193,4
DA:194,4
end_of_record
SF:/home/atcsol/git/PROYECTO_OBDH/uah_exp_freertos_project_2024/asw/dataclasses/CDEventList/include/public/cdeventlist.h
FN:60,_ZN11CDEventList12GetEventInfoEh
FNDA:0,_ZN11CDEventList12GetEventInfoEh
FN:70,_ZN11CDEventList14ClearEventListEv
FNDA:103,_ZN11CDEventList14ClearEventListEv
FN:76,_ZN11CDEventList17GetNumberOfEventsEv
FNDA:98,_ZN11CDEventList17GetNumberOfEventsEv
DA:60,0
DA:62,0
DA:63,0
DA:64,0
DA:67,0
DA:70,103
DA:71,103
DA:72,103
DA:74,103
DA:76,98
DA:77,98
end_of_record
SF:/home/atcsol/git/PROYECTO_OBDH/uah_exp_freertos_project_2024/service_libraries/edroomsl/edroombp/include/public/edroombp.h
FN:192,_ZN12Pr_SemaphoreD2Ev
FNDA:7,_ZN12Pr_SemaphoreD2Ev
FN:310,_ZN15Pr_SemaphoreRec4WaitEv
FNDA:9483,_ZN15Pr_SemaphoreRec4WaitEv
FN:319,_ZN15Pr_SemaphoreRec6SignalEv
FNDA:9483,_ZN15Pr_SemaphoreRec6SignalEv
FN:337,_ZN15Pr_SemaphoreRecD2Ev
FNDA:5,_ZN15Pr_SemaphoreRecD2Ev
DA:192,7
DA:194,7
DA:195,7
DA:310,9483
DA:319,9483
DA:337,5
end_of_record
SF:/home/atcsol/git/PROYECTO_OBDH/uah_exp_freertos_project_2024/service_libraries/icuasw_pus_services/src/icuasw_pus_service19.cpp
FN:30,_ZN12PUSService1917GetEvActionConfigEtRhRb
FNDA:0,_ZN12PUSService1917GetEvActionConfigEtRhRb
FN:43,_ZN12PUSService1920GetFreeEvActionIndexERh
FNDA:0,_ZN12PUSService1920GetFreeEvActionIndexERh
FN:54,_ZN12PUSService1910Exec19_1TCER11CDTCHandlerR8CDTMList
FNDA:0,_ZN12PUSService1910Exec19_1TCER11CDTCHandlerR8CDTMList
FN:136,_ZN12PUSService1910Exec19_2TCER11CDTCHandlerR8CDTMList
FNDA:0,_ZN12PUSService1910Exec19_2TCER11CDTCHandlerR8CDTMList
FN:178,_ZN12PUSService1910Exec19_4TCER11CDTCHandlerR8CDTMList
FNDA:0,_ZN12PUSService1910Exec19_4TCER11CDTCHandlerR8CDTMList
FN:211,_ZN12PUSService1910Exec19_5TCER11CDTCHandlerR8CDTMList
FNDA:0,_ZN12PUSService1910Exec19_5TCER11CDTCHandlerR8CDTMList
FN:243,_ZN12PUSService196ExecTCER11CDTCHandlerR8CDTMList
FNDA:0,_ZN12PUSService196ExecTCER11CDTCHandlerR8CDTMList
FN:266,_ZN12PUSService1918ManageEventActionsER11CDEventList
FNDA:49,_ZN12PUSService1918ManageEventActionsER11CDEventList
FN:294,_ZN12PUSService1914InsertEvActionEthPht
FNDA:0,_ZN12PUSService1914InsertEvActionEthPht
FN:348,_ZN12PUSService1918NewPendingEvActionEth
FNDA:0,_ZN12PUSService1918NewPendingEvActionEth
FN:362,_ZN12PUSService1920IsEvActionQueueEmptyEv
FNDA:49,_ZN12PUSService1920IsEvActionQueueEmptyEv
FN:372,_ZN12PUSService1924ExtractEvActionFromQueueER10CDEvAction
FNDA:0,_ZN12PUSService1924ExtractEvActionFromQueueER10CDEvAction
FN:395,_ZN12PUSService1920GetEvActionTCHandlerER10CDEvActionR11CDTCHandler
FNDA:0,_ZN12PUSService1920GetEvActionTCHandlerER10CDEvActionR11CDTCHandler
FN:401,_ZN12PUSService1924TriggerEvActionExecutionEv
FNDA:0,_ZN12PUSService1924TriggerEvActionExecutionEv
FN:407,_ZN12PUSService1922HandlePendingEvActionsEv
FNDA:0,_ZN12PUSService1922HandlePendingEvActionsEv
DA:30,0
DA:32,0
DA:33,0
DA:34,0
DA:35,0
DA:36,0
DA:37,0
DA:40,0
DA:43,0
DA:44,0
DA:45,0
DA:46,0
DA:47,0
DA:48,0
DA:51,0
DA:54,0
DA:57,0
DA:58,0
DA:63,0
DA:65,0
DA:67,0
DA:69,0
DA:73,0
DA:74,0
DA:75,0
DA:76,0
DA:77,0
DA:80,0
DA:82,0
DA:87,0
DA:89,0
DA:97,0
DA:99,0
DA:100,0
DA:103,0
DA:105,0
DA:106,0
DA:107,0
DA:109,0
DA:113,0
DA:115,0
DA:117,0
DA:122,0
DA:123,0
DA:125,0
DA:134,0
DA:136,0
DA:140,0
DA:145,0
DA:147,0
DA:149,0
DA:151,0
DA:155,0
DA:157,0
DA:158,0
DA:163,0
DA:164,0
DA:165,0
DA:171,0
DA:176,0
DA:178,0
DA:182,0
DA:187,0
DA:189,0
DA:191,0
DA:193,0
DA:197,0
DA:199,0
DA:200,0
DA:204,0
DA:209,0
DA:211,0
DA:215,0
DA:220,0
DA:222,0
DA:224,0
DA:226,0
DA:230,0
DA:232,0
DA:233,0
DA:237,0
DA:241,0
DA:243,0
DA:245,0
DA:247,0
DA:248,0
DA:249,0
DA:250,0
DA:251,0
DA:252,0
DA:253,0
DA:254,0
DA:255,0
DA:256,0
DA:257,0
DA:258,0
DA:260,0
DA:261,0
DA:264,0
DA:266,49
DA:268,49
DA:269,49
DA:271,0
DA:273,0
DA:277,0
DA:279,0
DA:280,0
DA:282,0
DA:291,49
DA:292,49
DA:294,0
DA:298,0
DA:299,0
DA:302,0
DA:304,0
DA:306,0
DA:307,0
DA:308,0
DA:309,0
DA:310,0
DA:311,0
DA:313,0
DA:314,0
DA:315,0
DA:317,0
DA:318,0
DA:319,0
DA:320,0
DA:321,0
DA:326,0
DA:328,0
DA:330,0
DA:331,0
DA:333,0
DA:335,0
DA:337,0
DA:340,0
DA:342,0
DA:345,0
DA:348,0
DA:350,0
DA:352,0
DA:353,0
DA:354,0
DA:357,0
DA:362,49
DA:364,49
DA:365,49
DA:366,245
DA:367,196
DA:368,49
DA:369,49
DA:372,0
DA:374,0
DA:375,0
DA:378,0
DA:380,0
DA:381,0
DA:382,0
DA:383,0
DA:384,0
DA:385,0
DA:386,0
DA:388,0
DA:389,0
DA:391,0
DA:395,0
DA:398,0
DA:399,0
DA:401,0
DA:403,0
DA:404,0
DA:407,0
DA:409,0
DA:410,0
DA:411,0
end_of_record
TN:
SF:/home/atcsol/git/PROYECTO_OBDH/uah_exp_freertos_project_2024/service_libraries/icuasw_pus_services/src/icuasw_pus_service128.cpp
FN:11,_ZN13PUSService1286ExecTCER11CDTCHandlerR8CDTMList
FNDA:1,_ZN13PUSService1286ExecTCER11CDTCHandlerR8CDTMList
FN:26,_ZN13PUSService12811Exec128_1TCER11CDTCHandlerR8CDTMList
FNDA:1,_ZN13PUSService12811Exec128_1TCER11CDTCHandlerR8CDTMList
FN:34,_ZN13PUSService1289MngRebootEv
FNDA:1,_ZN13PUSService1289MngRebootEv
DA:11,1
DA:13,1
DA:14,1
DA:16,1
DA:18,1
DA:19,0
DA:20,0
DA:24,1
DA:26,1
DA:29,1
DA:32,1
DA:34,1
DA:36,1
end_of_record
TN:
SF:/home/atcsol/git/PROYECTO_OBDH/uah_exp_freertos_project_2024/service_libraries/icuasw_pus_services/src/icuasw_pus_service17.cpp
FN:10,_ZN12PUSService176ExecTCER11CDTCHandlerR8CDTMList
FNDA:0,_ZN12PUSService176ExecTCER11CDTCHandlerR8CDTMList
FN:26,_ZN12PUSService1712BuildTM_17_2ER8CDTMList
FNDA:0,_ZN12PUSService1712BuildTM_17_2ER8CDTMList
DA:10,0
DA:12,0
DA:13,0
DA:15,0
DA:17,0
DA:18,0
DA:19,0
DA:20,0
DA:24,0
DA:26,0
DA:28,0
DA:30,0
DA:32,0
end_of_record
TN:
SF:/home/atcsol/git/PROYECTO_OBDH/uah_exp_freertos_project_2024/service_libraries/icuasw_pus_services/src/icuasw_pus_service129.cpp
FN:26,_ZN13PUSService1296ExecTCER11CDTCHandlerR8CDTMList
FNDA:3,_ZN13PUSService1296ExecTCER11CDTCHandlerR8CDTMList
FN:42,_ZN13PUSService12911Exec129_1TCER11CDTCHandlerR8CDTMList
FNDA:1,_ZN13PUSService12911Exec129_1TCER11CDTCHandlerR8CDTMList
FN:64,_ZN13PUSService12911Exec129_2TCER11CDTCHandlerR8CDTMList
FNDA:2,_ZN13PUSService12911Exec129_2TCER11CDTCHandlerR8CDTMList
FN:88,_ZN13PUSService12913LimitActuatorEff
FNDA:992,_ZN13PUSService12913LimitActuatorEff
FN:99,_ZN13PUSService12915GuidanceControlEv
FNDA:496,_ZN13PUSService12915GuidanceControlEv
DA:26,3
DA:28,3
DA:29,1
DA:30,1
DA:31,1
DA:32,2
DA:33,2
DA:34,2
DA:36,0
DA:37,0
DA:40,3
DA:42,1
DA:45,1
DA:46,1
DA:49,1
DA:50,1
DA:51,1
DA:54,1
DA:56,0
DA:57,0
DA:58,0
DA:59,0
DA:62,1
DA:64,2
DA:66,2
DA:67,2
DA:70,2
DA:71,1
DA:72,1
DA:75,1
DA:77,1
DA:78,0
DA:79,1
DA:80,1
DA:83,2
DA:88,992
DA:90,992
DA:91,992
DA:92,1
DA:93,991
DA:94,0
DA:96,992
DA:99,496
DA:105,496
DA:108,496
DA:109,496
DA:113,496
DA:114,496
DA:128,496
DA:129,496
DA:130,496
DA:131,496
DA:134,496
DA:135,496
DA:136,496
DA:137,496
DA:139,496
end_of_record
SF:/home/atcsol/git/PROYECTO_OBDH/uah_exp_freertos_project_2024/llsw/emu_uah_exp_kinematics/include/public/emu_uah_exp_kinematics.h
FN:34,_ZN18UAHExpEmuKinematicC2Ev
FNDA:1,_ZN18UAHExpEmuKinematicC2Ev
DA:34,1
DA:35,1
DA:36,1
DA:37,1
DA:38,1
DA:39,1
end_of_record
TN:
SF:/home/atcsol/git/PROYECTO_OBDH/uah_exp_freertos_project_2024/service_libraries/edroomsl/edroombp/include/public/edroombp.h
FN:192,_ZN12Pr_SemaphoreD2Ev
FNDA:0,_ZN12Pr_SemaphoreD2Ev
FN:261,_ZN15Pr_SemaphoreBinD2Ev
FNDA:0,_ZN15Pr_SemaphoreBinD2Ev
DA:192,0
DA:194,0
DA:195,0
DA:261,0
DA:264,0
end_of_record
SF:/home/atcsol/git/PROYECTO_OBDH/uah_exp_freertos_project_2024/service_libraries/edroomsl/edroombp/src/freertossapi/edroombp.cpp
FN:35,_ZN11lista_tareaC2Ev
FNDA:1,_ZN11lista_tareaC2Ev
FN:37,_ZN11lista_tarea3addEP19tskTaskControlBlockP7Pr_Task
FNDA:12,_ZN11lista_tarea3addEP19tskTaskControlBlockP7Pr_Task
FN:48,_ZN11lista_tarea6removeEP19tskTaskControlBlock
FNDA:0,_ZN11lista_tarea6removeEP19tskTaskControlBlock
FN:73,_ZN11lista_tarea4findEP19tskTaskControlBlock
FNDA:607,_ZN11lista_tarea4findEP19tskTaskControlBlock
FN:100,_ZN9Pr_KernelC2Ev
FNDA:1,_ZN9Pr_KernelC2Ev
FN:105,_ZN9Pr_Kernel5StartEv
FNDA:1,_ZN9Pr_Kernel5StartEv
FN:112,_ZN9Pr_Kernel5PanicEPKc
FNDA:0,_ZN9Pr_Kernel5PanicEPKc
FN:126,_ZN7Pr_TaskC2EPFvvEPKc15TEDROOMPriorityj
FNDA:0,_ZN7Pr_TaskC2EPFvvEPKc15TEDROOMPriorityj
FN:154,_ZN7Pr_TaskC2EPFvvE15TEDROOMPriorityj
FNDA:12,_ZN7Pr_TaskC2EPFvvE15TEDROOMPriorityj
FN:182,_ZN7Pr_Task11SetPriorityE15TEDROOMPriority
FNDA:0,_ZN7Pr_Task11SetPriorityE15TEDROOMPriority
FN:193,_ZN7Pr_Task13SetMaxPrioTmpE15TEDROOMPriority
FNDA:597,_ZN7Pr_Task13SetMaxPrioTmpE15TEDROOMPriority
FN:206,_ZN7Pr_Task13SetMaxPrioMsgE15TEDROOMPriority
FNDA:0,_ZN7Pr_Task13SetMaxPrioMsgE15TEDROOMPriority
FN:219,_ZN7Pr_Task14RestorePrioMsgEv
FNDA:596,_ZN7Pr_Task14RestorePrioMsgEv
FN:228,_ZN7Pr_Task11GetTaskPrioEv
FNDA:0,_ZN7Pr_Task11GetTaskPrioEv
FN:233,_ZN7Pr_Task14ChangePriorityE15TEDROOMPriority
FNDA:1193,_ZN7Pr_Task14ChangePriorityE15TEDROOMPriority
FN:249,_ZN7Pr_TimeC2Ev
FNDA:2393,_ZN7Pr_TimeC2Ev
FN:255,_ZN7Pr_TimeC2ERKS_
FNDA:1810,_ZN7Pr_TimeC2ERKS_
FN:261,_ZN7Pr_TimeC2Ejj
FNDA:599,_ZN7Pr_TimeC2Ejj
FN:267,_ZN7Pr_TimeC2E8timespec
FNDA:0,_ZN7Pr_TimeC2E8timespec
FN:281,_ZN7Pr_Time7GetTimeEv
FNDA:3282,_ZN7Pr_Time7GetTimeEv
FN:291,_ZN7Pr_Time8GetTicksEv
FNDA:614,_ZN7Pr_Time8GetTicksEv
FN:302,_ZN7Pr_Time8FineTimeEv
FNDA:496,_ZN7Pr_Time8FineTimeEv
FN:313,_ZN7Pr_TimepLERKS_
FNDA:598,_ZN7Pr_TimepLERKS_
FN:319,_ZN7Pr_TimemIERKS_
FNDA:1093,_ZN7Pr_TimemIERKS_
FN:345,_ZN7Pr_TimeaSERKS_
FNDA:2989,_ZN7Pr_TimeaSERKS_
FN:352,_ZN7Pr_TimeeqERKS_
FNDA:0,_ZN7Pr_TimeeqERKS_
FN:357,_ZN7Pr_TimeneERKS_
FNDA:0,_ZN7Pr_TimeneERKS_
FN:362,_ZN7Pr_TimegtERKS_
FNDA:597,_ZN7Pr_TimegtERKS_
FN:367,_ZN7Pr_TimeltERKS_
FNDA:0,_ZN7Pr_TimeltERKS_
FN:372,_ZN7Pr_TimegeERKS_
FNDA:0,_ZN7Pr_TimegeERKS_
FN:377,_ZN7Pr_TimeleERKS_
FNDA:0,_ZN7Pr_TimeleERKS_
FN:384,_ZNK7Pr_Time5TicksEv
FNDA:0,_ZNK7Pr_Time5TicksEv
FN:390,_Z10Pr_DelayInRK7Pr_Time
FNDA:17,_Z10Pr_DelayInRK7Pr_Time
FN:396,_Z10Pr_DelayAtRK7Pr_Time
FNDA:0,_Z10Pr_DelayAtRK7Pr_Time
FN:420,_ZN12Pr_SemaphoreC2Ej
FNDA:69,_ZN12Pr_SemaphoreC2Ej
FN:431,_ZN15Pr_SemaphoreBinC2EPKcj
FNDA:0,_ZN15Pr_SemaphoreBinC2EPKcj
FN:443,_ZN15Pr_SemaphoreBinC2Ej
FNDA:50,_ZN15Pr_SemaphoreBinC2Ej
FN:455,_ZN15Pr_SemaphoreBin6SignalEv
FNDA:4070,_ZN15Pr_SemaphoreBin6SignalEv
FN:463,_ZN15Pr_SemaphoreBin4WaitEv
FNDA:4075,_ZN15Pr_SemaphoreBin4WaitEv
FN:472,_ZN15Pr_SemaphoreBin8WaitCondEv
FNDA:599,_ZN15Pr_SemaphoreBin8WaitCondEv
FN:481,_ZN15Pr_SemaphoreBin9WaitTimedERK7Pr_Time
FNDA:597,_ZN15Pr_SemaphoreBin9WaitTimedERK7Pr_Time
FN:498,_ZN15Pr_SemaphoreRecC2EPKc
FNDA:0,_ZN15Pr_SemaphoreRecC2EPKc
FN:508,_ZN15Pr_SemaphoreRecC2Ev
FNDA:19,_ZN15Pr_SemaphoreRecC2Ev
FN:521,_ZN15Pr_SemaphoreRecC2EPKcj
FNDA:0,_ZN15Pr_SemaphoreRecC2EPKcj
FN:537,_ZN15Pr_SemaphoreRecC2Ei
FNDA:0,_ZN15Pr_SemaphoreRecC2Ei
FN:554,_ZN15Pr_SemaphoreRec6UnLockEv
FNDA:9483,_ZN15Pr_SemaphoreRec6UnLockEv
FN:562,_ZN15Pr_SemaphoreRec4LockEv
FNDA:9483,_ZN15Pr_SemaphoreRec4LockEv
FN:576,_Z7Pr_SendR7Pr_TaskPv
FNDA:607,_Z7Pr_SendR7Pr_TaskPv
FN:583,_Z10Pr_ReceivePvj
FNDA:607,_Z10Pr_ReceivePvj
FN:607,_ZN13Pr_IRQManager7MaskIRQEj
FNDA:1,_ZN13Pr_IRQManager7MaskIRQEj
FN:611,_ZN13Pr_IRQManager10DisableIRQEj
FNDA:0,_ZN13Pr_IRQManager10DisableIRQEj
FN:616,_ZN13Pr_IRQManager9UnMaskIRQEj
FNDA:1,_ZN13Pr_IRQManager9UnMaskIRQEj
FN:620,_ZN13Pr_IRQManager9EnableIRQEj
FNDA:4,_ZN13Pr_IRQManager9EnableIRQEj
FN:625,_ZN13Pr_IRQManager14DisableAllIRQsEv
FNDA:0,_ZN13Pr_IRQManager14DisableAllIRQsEv
FN:630,_ZN13Pr_IRQManager19ApplyCurrentIRQMaskEv
FNDA:0,_ZN13Pr_IRQManager19ApplyCurrentIRQMaskEv
FN:635,_ZN13Pr_IRQManager17InstallIRQHandlerEPFvvEhh
FNDA:1,_ZN13Pr_IRQManager17InstallIRQHandlerEPFvvEhh
FN:642,_ZN13Pr_IRQManager19DeinstallIRQHandlerEhh
FNDA:0,_ZN13Pr_IRQManager19DeinstallIRQHandlerEhh
FN:663,_ZN11Pr_IRQEventC2Eh
FNDA:2,_ZN11Pr_IRQEventC2Eh
FN:670,_ZN11Pr_IRQEvent6SignalEv
FNDA:0,_ZN11Pr_IRQEvent6SignalEv
FN:683,_ZN11Pr_IRQEvent14SignalFromTaskEv
FNDA:4,_ZN11Pr_IRQEvent14SignalFromTaskEv
FN:688,_ZN11Pr_IRQEvent4WaitEv
FNDA:6,_ZN11Pr_IRQEvent4WaitEv
FN:693,_ZN11Pr_IRQEvent9WaitTimedER7Pr_Time
FNDA:0,_ZN11Pr_IRQEvent9WaitTimedER7Pr_Time
FN:700,_ZN11Pr_IRQEvent8WaitCondEv
FNDA:0,_ZN11Pr_IRQEvent8WaitCondEv
DA:35,1
DA:37,12
DA:40,12
DA:41,12
DA:42,12
DA:43,12
DA:44,12
DA:45,12
DA:48,0
DA:50,0
DA:51,0
DA:53,0
DA:55,0
DA:57,0
DA:58,0
DA:60,0
DA:61,0
DA:62,0
DA:66,0
DA:67,0
DA:70,0
DA:73,607
DA:76,607
DA:78,1865
DA:80,1865
DA:82,607
DA:86,1258
DA:89,0
DA:100,1
DA:103,1
DA:105,1
DA:108,1
DA:110,0
DA:112,0
DA:114,0
DA:116,0
DA:126,0
DA:129,0
DA:130,0
DA:131,0
DA:132,0
DA:134,0
DA:135,0
DA:137,0
DA:138,0
DA:139,0
DA:141,0
DA:142,0
DA:143,0
DA:146,0
DA:150,0
DA:152,0
DA:154,12
DA:156,12
DA:157,12
DA:158,12
DA:159,12
DA:163,12
DA:165,12
DA:166,12
DA:167,12
DA:169,12
DA:170,12
DA:171,12
DA:174,12
DA:178,0
DA:180,12
DA:182,0
DA:184,0
DA:186,0
DA:188,0
DA:189,0
DA:191,0
DA:193,597
DA:199,597
DA:201,597
DA:202,597
DA:204,597
DA:206,0
DA:208,0
DA:210,0
DA:211,0
DA:213,0
DA:214,0
DA:217,0
DA:219,596
DA:221,596
DA:223,596
DA:224,596
DA:226,595
DA:228,0
DA:230,0
DA:233,1193
DA:236,1193
DA:237,1193
DA:239,1193
DA:240,1192
DA:249,2393
DA:251,2393
DA:252,2393
DA:253,2393
DA:255,1810
DA:257,1810
DA:258,1810
DA:259,1810
DA:261,599
DA:263,599
DA:264,599
DA:265,599
DA:267,0
DA:272,0
DA:273,0
DA:274,0
DA:275,0
DA:276,0
DA:281,3282
DA:283,3282
DA:284,3282
DA:286,3282
DA:288,3282
DA:289,3282
DA:291,614
DA:293,614
DA:294,614
DA:296,614
DA:297,614
DA:298,614
DA:299,614
DA:302,496
DA:304,496
DA:306,496
DA:313,598
DA:315,598
DA:316,598
DA:319,1093
DA:321,1093
DA:323,1093
DA:324,1093
DA:326,105
DA:328,105
DA:329,105
DA:332,0
DA:335,988
DA:338,0
DA:340,1093
DA:345,2989
DA:347,2989
DA:348,2989
DA:349,2989
DA:352,0
DA:354,0
DA:357,0
DA:359,0
DA:362,597
DA:364,597
DA:367,0
DA:369,0
DA:372,0
DA:374,0
DA:377,0
DA:379,0
DA:384,0
DA:387,0
DA:390,17
DA:392,17
DA:393,17
DA:394,16
DA:396,0
DA:398,0
DA:399,0
DA:401,0
DA:402,0
DA:403,0
DA:404,0
DA:406,0
DA:410,0
DA:414,0
DA:420,69
DA:422,69
DA:423,69
DA:431,0
DA:432,0
DA:434,0
DA:435,0
DA:437,0
DA:439,0
DA:443,50
DA:445,50
DA:446,50
DA:447,50
DA:449,0
DA:451,50
DA:455,4070
DA:457,4070
DA:459,0
DA:461,4070
DA:463,4075
DA:465,4075
DA:467,0
DA:470,4069
DA:472,599
DA:476,599
DA:478,599
DA:481,597
DA:484,597
DA:486,597
DA:488,596
DA:498,0
DA:500,0
DA:501,0
DA:503,0
DA:505,0
DA:508,19
DA:511,19
DA:512,19
DA:513,19
DA:515,0
DA:517,19
DA:521,0
DA:529,0
DA:530,0
DA:532,0
DA:534,0
DA:537,0
DA:541,0
DA:547,0
DA:548,0
DA:550,0
DA:552,0
DA:554,9483
DA:556,9483
DA:558,0
DA:560,9483
DA:562,9483
DA:564,9483
DA:566,0
DA:569,0
DA:570,0
DA:572,9483
DA:576,607
DA:578,607
DA:579,607
DA:580,607
DA:581,606
DA:583,607
DA:585,607
DA:587,607
DA:591,606
DA:592,606
DA:594,15006
DA:596,14400
DA:599,606
DA:600,606
DA:607,1
DA:609,1
DA:611,0
DA:614,0
DA:616,1
DA:619,1
DA:620,4
DA:623,4
DA:625,0
DA:628,0
DA:630,0
DA:633,0
DA:635,1
DA:640,1
DA:642,0
DA:647,0
DA:663,2
DA:665,2
DA:666,2
DA:670,0
DA:681,0
DA:683,4
DA:685,4
DA:687,4
DA:688,6
DA:690,6
DA:691,4
DA:693,0
DA:696,0
DA:700,0
DA:702,0
end_of_record
TN:
SF:/home/atcsol/git/PROYECTO_OBDH/uah_exp_freertos_project_2024/service_libraries/edroomsl/edroomsl/include/edroomsl/edroomsl.h
FN:115,_ZN11CEDROOMPoolD2Ev
FNDA:20,_ZN11CEDROOMPoolD2Ev
FN:115,_ZN11CEDROOMPoolD0Ev
FNDA:0,_ZN11CEDROOMPoolD0Ev
FN:231,_ZN17CEDROOMMemoryPool7IsEmptyEv
FNDA:1763,_ZN17CEDROOMMemoryPool7IsEmptyEv
FN:236,_ZN17CEDROOMMemoryPoolD2Ev
FNDA:20,_ZN17CEDROOMMemoryPoolD2Ev
FN:236,_ZN17CEDROOMMemoryPoolD0Ev
FNDA:0,_ZN17CEDROOMMemoryPoolD0Ev
FN:314,_ZN26CEDROOMProtectedMemoryPoolD2Ev
FNDA:2,_ZN26CEDROOMProtectedMemoryPoolD2Ev
FN:314,_ZN26CEDROOMProtectedMemoryPoolD0Ev
FNDA:0,_ZN26CEDROOMProtectedMemoryPoolD0Ev
FN:578,_ZN14CEDROOMMessageD2Ev
FNDA:69,_ZN14CEDROOMMessageD2Ev
FN:578,_ZN14CEDROOMMessageD0Ev
FNDA:0,_ZN14CEDROOMMessageD0Ev
FN:643,_ZN20CEDROOMSynchrMessageD0Ev
FNDA:0,_ZN20CEDROOMSynchrMessageD0Ev
FN:643,_ZN20CEDROOMSynchrMessageD2Ev
FNDA:0,_ZN20CEDROOMSynchrMessageD2Ev
FN:688,_ZN21CEDROOMTimeOutMessageD2Ev
FNDA:9,_ZN21CEDROOMTimeOutMessageD2Ev
FN:688,_ZN21CEDROOMTimeOutMessageD0Ev
FNDA:0,_ZN21CEDROOMTimeOutMessageD0Ev
FN:812,_ZN25CEDROOMSynchrMessagesPoolD2Ev
FNDA:0,_ZN25CEDROOMSynchrMessagesPoolD2Ev
FN:812,_ZN25CEDROOMSynchrMessagesPoolD0Ev
FNDA:0,_ZN25CEDROOMSynchrMessagesPoolD0Ev
FN:1808,_ZN16CEDROOMTXChannelC2Ev
FNDA:14,_ZN16CEDROOMTXChannelC2Ev
FN:1812,_ZN16CEDROOMTXChannelD2Ev
FNDA:14,_ZN16CEDROOMTXChannelD2Ev
FN:1812,_ZN16CEDROOMTXChannelD0Ev
FNDA:0,_ZN16CEDROOMTXChannelD0Ev
FN:1883,_ZN21CEDROOMLocalTXChannelD2Ev
FNDA:14,_ZN21CEDROOMLocalTXChannelD2Ev
FN:1883,_ZN21CEDROOMLocalTXChannelD0Ev
FNDA:0,_ZN21CEDROOMLocalTXChannelD0Ev
FN:2224,_ZN16CEDROOMComponent12SetErrorFlagE15TEDROOMCmpError
FNDA:0,_ZN16CEDROOMComponent12SetErrorFlagE15TEDROOMCmpError
FN:2248,_ZN16CEDROOMComponent14GetNomPriorityEv
FNDA:1158,_ZN16CEDROOMComponent14GetNomPriorityEv
DA:115,0
DA:115,20
DA:231,1763
DA:236,0
DA:236,20
DA:314,0
DA:314,2
DA:578,0
DA:578,69
DA:643,0
DA:643,0
DA:688,0
DA:688,9
DA:812,0
DA:812,0
DA:1808,14
DA:1812,0
DA:1812,14
DA:1883,0
DA:1883,14
DA:2224,0
DA:2225,0
DA:2248,1158
end_of_record
SF:/home/atcsol/git/PROYECTO_OBDH/uah_exp_freertos_project_2024/service_libraries/edroomsl/edroombp/include/public/edroombp.h
FN:192,_ZN12Pr_SemaphoreD2Ev
FNDA:0,_ZN12Pr_SemaphoreD2Ev
FN:261,_ZN15Pr_SemaphoreBinD2Ev
FNDA:2,_ZN15Pr_SemaphoreBinD2Ev
FN:310,_ZN15Pr_SemaphoreRec4WaitEv
FNDA:0,_ZN15Pr_SemaphoreRec4WaitEv
FN:319,_ZN15Pr_SemaphoreRec6SignalEv
FNDA:0,_ZN15Pr_SemaphoreRec6SignalEv
FN:337,_ZN15Pr_SemaphoreRecD2Ev
FNDA:0,_ZN15Pr_SemaphoreRecD2Ev
FN:533,_ZN7Pr_TaskD2Ev
FNDA:0,_ZN7Pr_TaskD2Ev
DA:192,0
DA:194,0
DA:195,0
DA:261,2
DA:264,2
DA:310,0
DA:319,0
DA:337,0
DA:533,0
DA:536,0
end_of_record
SF:/home/atcsol/git/PROYECTO_OBDH/uah_exp_freertos_project_2024/service_libraries/edroomsl/edroomsl/src/edroomsl.cpp
FN:102,_ZN17CEDROOMMemoryPool9SetMemoryEjPvPbj
FNDA:25,_ZN17CEDROOMMemoryPool9SetMemoryEjPvPbj
FN:127,_ZN17CEDROOMMemoryPool14GetElementSizeEv
FNDA:0,_ZN17CEDROOMMemoryPool14GetElementSizeEv
FN:135,_ZN17CEDROOMMemoryPool9AllocDataEv
FNDA:1760,_ZN17CEDROOMMemoryPool9AllocDataEv
FN:147,_ZN17CEDROOMMemoryPool9AllocDataERj
FNDA:2918,_ZN17CEDROOMMemoryPool9AllocDataERj
FN:191,_ZN17CEDROOMMemoryPool8FreeDataEPv
FNDA:2909,_ZN17CEDROOMMemoryPool8FreeDataEPv
FN:244,_ZN26CEDROOMProtectedMemoryPoolC2EjPvPbj
FNDA:7,_ZN26CEDROOMProtectedMemoryPoolC2EjPvPbj
FN:256,_ZN26CEDROOMProtectedMemoryPool9AllocDataEv
FNDA:560,_ZN26CEDROOMProtectedMemoryPool9AllocDataEv
FN:268,_ZN26CEDROOMProtectedMemoryPool9AllocDataERj
FNDA:560,_ZN26CEDROOMProtectedMemoryPool9AllocDataERj
FN:285,_ZN26CEDROOMProtectedMemoryPool8FreeDataEPv
FNDA:559,_ZN26CEDROOMProtectedMemoryPool8FreeDataEPv
FN:330,_ZN14CEDROOMMessageC2Ev
FNDA:81,_ZN14CEDROOMMessageC2Ev
FN:345,_ZN14CEDROOMMessage16FreeDeliveryInfoEv
FNDA:560,_ZN14CEDROOMMessage16FreeDeliveryInfoEv
FN:352,_ZN14CEDROOMMessage13GetPInterfaceEv
FNDA:602,_ZN14CEDROOMMessage13GetPInterfaceEv
FN:357,_ZN14CEDROOMMessage14GetMsgDataSizeEv
FNDA:0,_ZN14CEDROOMMessage14GetMsgDataSizeEv
FN:368,_ZN14CEDROOMMessage5replyEi
FNDA:0,_ZN14CEDROOMMessage5replyEi
FN:376,_ZN14CEDROOMMessage5replyEiPvP17CEDROOMMemoryPool
FNDA:0,_ZN14CEDROOMMessage5replyEiPvP17CEDROOMMemoryPool
FN:390,_ZN20CEDROOMSynchrMessageC2Ev
FNDA:6,_ZN20CEDROOMSynchrMessageC2Ev
FN:399,_ZN20CEDROOMSynchrMessage5replyEi
FNDA:553,_ZN20CEDROOMSynchrMessage5replyEi
FN:407,_ZN20CEDROOMSynchrMessage5replyEiPvP17CEDROOMMemoryPool
FNDA:553,_ZN20CEDROOMSynchrMessage5replyEiPvP17CEDROOMMemoryPool
FN:432,_ZN21CEDROOMTimeOutMessage16FreeDeliveryInfoEv
FNDA:595,_ZN21CEDROOMTimeOutMessage16FreeDeliveryInfoEv
FN:457,_ZN25CEDROOMSynchrMessagesPoolC2EP20CEDROOMSynchrMessage
FNDA:6,_ZN25CEDROOMSynchrMessagesPoolC2EP20CEDROOMSynchrMessage
FN:465,_ZN25CEDROOMSynchrMessagesPool14GetElementSizeEv
FNDA:0,_ZN25CEDROOMSynchrMessagesPool14GetElementSizeEv
FN:471,_ZN25CEDROOMSynchrMessagesPool9AllocDataEv
FNDA:553,_ZN25CEDROOMSynchrMessagesPool9AllocDataEv
FN:478,_ZN25CEDROOMSynchrMessagesPool8FreeDataEPv
FNDA:553,_ZN25CEDROOMSynchrMessagesPool8FreeDataEPv
FN:484,_ZN19CEDROOMMessagesPool9SetMemoryEjP14CEDROOMMessagePb
FNDA:6,_ZN19CEDROOMMessagesPool9SetMemoryEjP14CEDROOMMessagePb
FN:492,_ZN19CEDROOMMessagesPool9AllocDataEv
FNDA:7,_ZN19CEDROOMMessagesPool9AllocDataEv
FN:498,_ZN26CEDROOMTimeOutMessagesPool9SetMemoryEjP21CEDROOMTimeOutMessagePb
FNDA:3,_ZN26CEDROOMTimeOutMessagesPool9SetMemoryEjP21CEDROOMTimeOutMessagePb
FN:506,_ZN26CEDROOMTimeOutMessagesPool9AllocDataEv
FNDA:598,_ZN26CEDROOMTimeOutMessagesPool9AllocDataEv
FN:543,_ZN16CEDROOMInterface4sendEi
FNDA:0,_ZN16CEDROOMInterface4sendEi
FN:550,_ZN16CEDROOMInterface4sendEiPvP17CEDROOMMemoryPool
FNDA:3,_ZN16CEDROOMInterface4sendEiPvP17CEDROOMMemoryPool
FN:562,_ZN16CEDROOMInterface6invokeEi
FNDA:0,_ZN16CEDROOMInterface6invokeEi
FN:570,_ZN16CEDROOMInterface6invokeEiPvP17CEDROOMMemoryPool
FNDA:553,_ZN16CEDROOMInterface6invokeEiPvP17CEDROOMMemoryPool
FN:580,_ZN16CEDROOMInterface16applyConverFunctEi
FNDA:553,_ZN16CEDROOMInterface16applyConverFunctEi
FN:588,_ZN16CEDROOMInterfaceeqERS_
FNDA:602,_ZN16CEDROOMInterfaceeqERS_
FN:592,_ZN16CEDROOMInterfaceneERS_
FNDA:0,_ZN16CEDROOMInterfaceneERS_
FN:601,_ZN19CEDROOMIRQInterface14InstallHandlerEv
FNDA:1,_ZN19CEDROOMIRQInterface14InstallHandlerEv
FN:610,_ZN19CEDROOMIRQInterface16DeInstallHandlerEv
FNDA:0,_ZN19CEDROOMIRQInterface16DeInstallHandlerEv
FN:620,_ZN19CEDROOMIRQInterface17EndIRQHandlerTaskEv
FNDA:0,_ZN19CEDROOMIRQInterface17EndIRQHandlerTaskEv
FN:630,_ZN19CEDROOMIRQInterface7MaskIRQEv
FNDA:1,_ZN19CEDROOMIRQInterface7MaskIRQEv
FN:635,_ZN19CEDROOMIRQInterface9UnMaskIRQEv
FNDA:1,_ZN19CEDROOMIRQInterface9UnMaskIRQEv
FN:640,_ZN19CEDROOMIRQInterfaceC2EPFvvES1_R11Pr_IRQEventR15Pr_SemaphoreBina
FNDA:2,_ZN19CEDROOMIRQInterfaceC2EPFvvES1_R11Pr_IRQEventR15Pr_SemaphoreBina
FN:653,_ZN19CEDROOMIRQInterface9NewIRQMsgEiPvP17CEDROOMMemoryPool
FNDA:4,_ZN19CEDROOMIRQInterface9NewIRQMsgEiPvP17CEDROOMMemoryPool
FN:716,_ZN26CEDROOMNonMaskIRQInterfaceC2EPFvvES1_R11Pr_IRQEventR15Pr_SemaphoreBinhPh
FNDA:0,_ZN26CEDROOMNonMaskIRQInterfaceC2EPFvvES1_R11Pr_IRQEventR15Pr_SemaphoreBinhPh
FN:728,_ZN26CEDROOMNonMaskIRQInterface14InstallHandlerEv
FNDA:0,_ZN26CEDROOMNonMaskIRQInterface14InstallHandlerEv
FN:739,_ZN26CEDROOMNonMaskIRQInterface16DeInstallHandlerEv
FNDA:0,_ZN26CEDROOMNonMaskIRQInterface16DeInstallHandlerEv
FN:748,_ZN26CEDROOMNonMaskIRQInterface17EndIRQHandlerTaskEv
FNDA:0,_ZN26CEDROOMNonMaskIRQInterface17EndIRQHandlerTaskEv
FN:790,_ZN12CEDROOMTimerC2Ev
FNDA:598,_ZN12CEDROOMTimerC2Ev
FN:795,_ZN12CEDROOMTimer7IsValidEv
FNDA:0,_ZN12CEDROOMTimer7IsValidEv
FN:807,_ZN22CEDROOMTimingInterfaceC2EP16CEDROOMTimingSAPj
FNDA:3,_ZN22CEDROOMTimingInterfaceC2EP16CEDROOMTimingSAPj
FN:820,_ZN22CEDROOMTimingInterface8InformAtE7Pr_Time
FNDA:598,_ZN22CEDROOMTimingInterface8InformAtE7Pr_Time
FN:833,_ZN22CEDROOMTimingInterface8InformInE7Pr_Time
FNDA:0,_ZN22CEDROOMTimingInterface8InformInE7Pr_Time
FN:849,_ZN22CEDROOMTimingInterface11currentTimeER7Pr_Time
FNDA:0,_ZN22CEDROOMTimingInterface11currentTimeER7Pr_Time
FN:856,_ZN22CEDROOMTimingInterface11currentTimeEv
FNDA:0,_ZN22CEDROOMTimingInterface11currentTimeEv
FN:870,_ZN16CEDROOMTimingSAPC2EP16CEDROOMComponentjP19CEDROOMTimingMemory
FNDA:3,_ZN16CEDROOMTimingSAPC2EP16CEDROOMComponentjP19CEDROOMTimingMemory
FN:895,_ZN16CEDROOMTimingSAP14EDROOMfunTimerEv
FNDA:3,_ZN16CEDROOMTimingSAP14EDROOMfunTimerEv
FN:1056,_ZN16CEDROOMTimingSAP8InformAtEP22CEDROOMTimingInterface7Pr_Time
FNDA:598,_ZN16CEDROOMTimingSAP8InformAtEP22CEDROOMTimingInterface7Pr_Time
FN:1236,_ZN16CEDROOMTimingSAP5StartEv
FNDA:3,_ZN16CEDROOMTimingSAP5StartEv
FN:1248,_ZN19CEDROOMTimingMemory9SetMemoryEjP16CEDROOMTimerInfoPbP21CEDROOMTimeOutMessageS2_
FNDA:3,_ZN19CEDROOMTimingMemory9SetMemoryEjP16CEDROOMTimerInfoPbP21CEDROOMTimeOutMessageS2_
FN:1265,_ZN20CEDROOMTimerInfoPool9SetMemoryEjP16CEDROOMTimerInfoPb
FNDA:3,_ZN20CEDROOMTimerInfoPool9SetMemoryEjP16CEDROOMTimerInfoPb
FN:1276,_ZN20CEDROOMTimerInfoPool9AllocDataERj
FNDA:598,_ZN20CEDROOMTimerInfoPool9AllocDataERj
FN:1310,_ZN12CEDROOMQueue10CQueueNodeC2Ev
FNDA:73,_ZN12CEDROOMQueue10CQueueNodeC2Ev
FN:1318,_ZN12CEDROOMQueue10CQueueHeadC2Ev
FNDA:48,_ZN12CEDROOMQueue10CQueueHeadC2Ev
FN:1328,_ZN12CEDROOMQueueC2EjP7Pr_TaskP15Pr_SemaphoreRectPNS_21CEDROOMQueueNodesPoolEPNS_10CQueueHeadE
FNDA:6,_ZN12CEDROOMQueueC2EjP7Pr_TaskP15Pr_SemaphoreRectPNS_21CEDROOMQueueNodesPoolEPNS_10CQueueHeadE
FN:1361,_ZN12CEDROOMQueue6IsFullEv
FNDA:1155,_ZN12CEDROOMQueue6IsFullEv
FN:1369,_ZN12CEDROOMQueue2InEP14CEDROOMMessage
FNDA:1155,_ZN12CEDROOMQueue2InEP14CEDROOMMessage
FN:1401,_ZN12CEDROOMQueue3OutERP14CEDROOMMessage
FNDA:1159,_ZN12CEDROOMQueue3OutERP14CEDROOMMessage
FN:1456,_ZN12CEDROOMQueue26UpDateSortedQueueHeadsListE15TEDROOMPriority
FNDA:1154,_ZN12CEDROOMQueue26UpDateSortedQueueHeadsListE15TEDROOMPriority
FN:1511,_ZN12CEDROOMQueue9PutInNodeEPNS_10CQueueHeadEPNS_10CQueueNodeE
FNDA:1155,_ZN12CEDROOMQueue9PutInNodeEPNS_10CQueueHeadEPNS_10CQueueNodeE
FN:1535,_ZN12CEDROOMQueue11TakeOutNodeERPNS_10CQueueNodeER15TEDROOMPriority
FNDA:1155,_ZN12CEDROOMQueue11TakeOutNodeERPNS_10CQueueNodeER15TEDROOMPriority
FN:1558,_ZN12CEDROOMQueue21CEDROOMQueueNodesPool9SetMemoryEjPNS_10CQueueNodeEPb
FNDA:6,_ZN12CEDROOMQueue21CEDROOMQueueNodesPool9SetMemoryEjPNS_10CQueueNodeEPb
FN:1569,_ZN12CEDROOMQueue21CEDROOMQueueNodesPool9AllocDataEv
FNDA:1155,_ZN12CEDROOMQueue21CEDROOMQueueNodesPool9AllocDataEv
FN:1606,_ZN21CEDROOMLocalTXChannelC2Ev
FNDA:14,_ZN21CEDROOMLocalTXChannelC2Ev
FN:1621,_ZN21CEDROOMLocalTXChannel4sendEiPvP17CEDROOMMemoryPool
FNDA:3,_ZN21CEDROOMLocalTXChannel4sendEiPvP17CEDROOMMemoryPool
FN:1693,_ZN21CEDROOMLocalTXChannel6invokeEiPvP17CEDROOMMemoryPool
FNDA:553,_ZN21CEDROOMLocalTXChannel6invokeEiPvP17CEDROOMMemoryPool
FN:1782,_ZN19CEDROOMLocalCommSAP17RegisterInterfaceEjR16CEDROOMInterfaceP16CEDROOMComponent
FNDA:19,_ZN19CEDROOMLocalCommSAP17RegisterInterfaceEjR16CEDROOMInterfaceP16CEDROOMComponent
FN:1795,_ZN19CEDROOMLocalCommSAP7ConnectER16CEDROOMInterfaceS1_R22CEDROOMLocalConnectionPFiiES5_
FNDA:7,_ZN19CEDROOMLocalCommSAP7ConnectER16CEDROOMInterfaceS1_R22CEDROOMLocalConnectionPFiiES5_
FN:1860,_ZN16CEDROOMComponentC2Ejtj15TEDROOMPriorityjP22CEDROOMComponentMemory
FNDA:6,_ZN16CEDROOMComponentC2Ejtj15TEDROOMPriorityjP22CEDROOMComponentMemory
FN:1891,_ZN16CEDROOMComponentC2EPKcjtj15TEDROOMPriorityjP22CEDROOMComponentMemory
FNDA:0,_ZN16CEDROOMComponentC2EPKcjtj15TEDROOMPriorityjP22CEDROOMComponentMemory
FN:1923,_ZN16CEDROOMComponentD2Ev
FNDA:0,_ZN16CEDROOMComponentD2Ev
FN:1923,_ZN16CEDROOMComponentD0Ev
FNDA:0,_ZN16CEDROOMComponentD0Ev
FN:1930,_ZN16CEDROOMComponent13EDROOMDestroyEv
FNDA:0,_ZN16CEDROOMComponent13EDROOMDestroyEv
FN:1969,_ZN16CEDROOMComponent11EDROOMStartEv
FNDA:6,_ZN16CEDROOMComponent11EDROOMStartEv
FN:1984,_ZN16CEDROOMComponent12EDROOMNewMsgEv
FNDA:1159,_ZN16CEDROOMComponent12EDROOMNewMsgEv
FN:2009,_ZN16CEDROOMComponent17EDROOMFreeMessageERP14CEDROOMMessage
FNDA:1159,_ZN16CEDROOMComponent17EDROOMFreeMessageERP14CEDROOMMessage
FN:2037,_ZN16CEDROOMComponent21EDROOMFreeMsgBackDataEv
FNDA:1712,_ZN16CEDROOMComponent21EDROOMFreeMsgBackDataEv
FN:2055,_ZN16CEDROOMComponent19EDROOMComponentTaskEv
FNDA:6,_ZN16CEDROOMComponent19EDROOMComponentTaskEv
FN:2071,_ZN22CEDROOMComponentMemory9SetMemoryEjP14CEDROOMMessagePbjPN12CEDROOMQueue10CQueueNodeES2_PNS3_10CQueueHeadE
FNDA:6,_ZN22CEDROOMComponentMemory9SetMemoryEjP14CEDROOMMessagePbjPN12CEDROOMQueue10CQueueNodeES2_PNS3_10CQueueHeadE
DA:102,25
DA:108,25
DA:111,25
DA:113,246
DA:114,221
DA:117,25
DA:120,25
DA:123,25
DA:125,25
DA:127,0
DA:128,0
DA:135,1760
DA:139,1760
DA:147,2918
DA:149,2918
DA:153,2918
DA:156,2918
DA:159,2918
DA:160,2918
DA:163,2918
DA:164,2918
DA:165,2918
DA:169,2918
DA:171,2918
DA:174,2918
DA:176,2918
DA:178,2918
DA:181,0
DA:184,2918
DA:191,2909
DA:199,2909
DA:202,2909
DA:204,2909
DA:206,2909
DA:210,0
DA:215,2909
DA:218,2909
DA:221,2909
DA:222,0
DA:224,2909
DA:226,2909
DA:229,2909
DA:244,7
DA:245,7
DA:248,7
DA:250,7
DA:256,560
DA:260,1120
DA:268,560
DA:272,560
DA:274,560
DA:276,560
DA:278,560
DA:285,559
DA:289,559
DA:291,559
DA:293,559
DA:295,559
DA:330,81
DA:332,81
DA:333,81
DA:334,81
DA:335,81
DA:336,81
DA:337,81
DA:338,81
DA:340,81
DA:345,560
DA:347,560
DA:352,602
DA:353,602
DA:357,0
DA:358,0
DA:359,0
DA:360,0
DA:362,0
DA:368,0
DA:372,0
DA:373,0
DA:376,0
DA:381,0
DA:382,0
DA:390,6
DA:391,6
DA:392,6
DA:393,6
DA:394,6
DA:399,553
DA:401,553
DA:403,553
DA:407,553
DA:410,553
DA:412,553
DA:413,553
DA:415,553
DA:416,0
DA:417,0
DA:420,553
DA:422,553
DA:423,553
DA:425,553
DA:432,595
DA:434,595
DA:436,595
DA:438,595
DA:440,595
DA:442,595
DA:446,595
DA:448,595
DA:457,6
DA:458,6
DA:459,6
DA:461,6
DA:463,6
DA:465,0
DA:466,0
DA:471,553
DA:473,553
DA:474,553
DA:478,553
DA:480,553
DA:481,553
DA:484,6
DA:487,6
DA:490,6
DA:492,7
DA:494,7
DA:498,3
DA:501,3
DA:504,3
DA:506,598
DA:508,598
DA:543,0
DA:546,0
DA:548,0
DA:550,3
DA:555,3
DA:557,3
DA:562,0
DA:564,0
DA:570,553
DA:573,553
DA:580,553
DA:582,553
DA:588,602
DA:589,602
DA:592,0
DA:593,0
DA:601,1
DA:602,1
DA:603,1
DA:605,1
DA:608,1
DA:610,0
DA:611,0
DA:612,0
DA:613,0
DA:614,0
DA:615,0
DA:618,0
DA:620,0
DA:622,0
DA:623,0
DA:624,0
DA:625,0
DA:626,0
DA:628,0
DA:630,1
DA:632,1
DA:633,1
DA:635,1
DA:637,1
DA:638,1
DA:640,2
DA:642,2
DA:644,2
DA:645,2
DA:646,2
DA:647,2
DA:648,2
DA:649,2
DA:651,2
DA:653,4
DA:659,4
DA:662,4
DA:665,0
DA:667,4
DA:670,0
DA:675,4
DA:679,4
DA:683,4
DA:686,4
DA:689,4
DA:691,4
DA:692,4
DA:693,0
DA:698,4
DA:701,4
DA:704,4
DA:709,4
DA:711,4
DA:716,0
DA:719,0
DA:721,0
DA:723,0
DA:724,0
DA:726,0
DA:728,0
DA:730,0
DA:731,0
DA:732,0
DA:734,0
DA:737,0
DA:739,0
DA:740,0
DA:741,0
DA:742,0
DA:743,0
DA:746,0
DA:748,0
DA:750,0
DA:751,0
DA:752,0
DA:753,0
DA:755,0
DA:790,598
DA:791,598
DA:792,598
DA:793,598
DA:795,0
DA:796,0
DA:807,3
DA:808,3
DA:810,3
DA:812,3
DA:813,3
DA:815,3
DA:820,598
DA:822,598
DA:833,0
DA:835,0
DA:837,0
DA:839,0
DA:842,0
DA:849,0
DA:850,0
DA:851,0
DA:856,0
DA:857,0
DA:858,0
DA:859,0
DA:870,3
DA:871,3
DA:873,3
DA:876,6
DA:880,3
DA:882,3
DA:884,3
DA:886,3
DA:888,3
DA:890,3
DA:895,3
DA:901,3
DA:903,3
DA:904,3
DA:908,3
DA:911,3
DA:914,3
DA:918,598
DA:921,598
DA:923,597
DA:926,597
DA:929,597
DA:931,597
DA:934,597
DA:937,597
DA:938,597
DA:940,597
DA:942,596
DA:947,596
DA:950,595
DA:954,595
DA:958,595
DA:961,595
DA:965,595
DA:968,595
DA:971,595
DA:973,595
DA:975,0
DA:979,595
DA:984,595
DA:987,595
DA:992,595
DA:994,0
DA:996,0
DA:998,0
DA:1001,0
DA:1004,0
DA:1007,0
DA:1012,0
DA:1015,0
DA:1018,0
DA:1020,0
DA:1022,0
DA:1026,0
DA:1031,0
DA:1034,0
DA:1037,0
DA:1044,595
DA:1056,598
DA:1062,598
DA:1065,598
DA:1067,598
DA:1069,0
DA:1072,0
DA:1079,598
DA:1082,598
DA:1085,598
DA:1088,598
DA:1091,598
DA:1093,598
DA:1095,598
DA:1100,598
DA:1103,598
DA:1107,598
DA:1111,598
DA:1113,598
DA:1115,598
DA:1117,598
DA:1119,598
DA:1121,598
DA:1123,598
DA:1125,598
DA:1127,598
DA:1129,598
DA:1133,598
DA:1137,598
DA:1139,598
DA:1143,0
DA:1144,0
DA:1150,0
DA:1152,0
DA:1153,0
DA:1157,0
DA:1160,0
DA:1166,0
DA:1170,0
DA:1173,0
DA:1177,0
DA:1179,0
DA:1181,0
DA:1184,0
DA:1187,0
DA:1188,0
DA:1192,0
DA:1200,598
DA:1202,598
DA:1203,598
DA:1209,598
DA:1211,598
DA:1215,598
DA:1219,598
DA:1220,597
DA:1225,597
DA:1230,597
DA:1236,3
DA:1240,3
DA:1241,3
DA:1243,3
DA:1248,3
DA:1255,3
DA:1258,3
DA:1260,3
DA:1265,3
DA:1268,3
DA:1271,3
DA:1276,598
DA:1278,598
DA:1310,73
DA:1311,73
DA:1312,73
DA:1313,73
DA:1318,48
DA:1319,48
DA:1320,48
DA:1321,48
DA:1322,48
DA:1323,48
DA:1328,6
DA:1330,6
DA:1331,6
DA:1335,6
DA:1337,6
DA:1338,6
DA:1339,6
DA:1341,6
DA:1342,6
DA:1344,6
DA:1345,6
DA:1347,54
DA:1348,48
DA:1350,6
DA:1352,6
DA:1361,1155
DA:1363,1155
DA:1369,1155
DA:1371,1155
DA:1375,1155
DA:1376,1155
DA:1377,1155
DA:1379,1155
DA:1383,1155
DA:1385,1154
DA:1389,1155
DA:1391,1154
DA:1392,1154
DA:1396,1155
DA:1401,1159
DA:1408,1159
DA:1412,1159
DA:1414,1158
DA:1418,1158
DA:1421,1158
DA:1427,1154
DA:1434,1155
DA:1436,1155
DA:1438,1155
DA:1442,1155
DA:1444,1155
DA:1446,1155
DA:1450,1155
DA:1452,1155
DA:1456,1154
DA:1460,1154
DA:1462,1154
DA:1464,1154
DA:1466,1154
DA:1467,1154
DA:1469,0
DA:1471,0
DA:1472,0
DA:1473,0
DA:1476,0
DA:1478,0
DA:1480,0
DA:1482,0
DA:1483,0
DA:1484,0
DA:1488,0
DA:1489,0
DA:1491,0
DA:1493,0
DA:1494,0
DA:1495,0
DA:1502,1154
DA:1511,1155
DA:1512,1155
DA:1514,1155
DA:1516,1
DA:1517,1
DA:1518,1
DA:1521,1154
DA:1523,1154
DA:1526,1155
DA:1535,1155
DA:1540,1155
DA:1542,1155
DA:1545,1155
DA:1549,1155
DA:1551,1154
DA:1553,1155
DA:1558,6
DA:1561,6
DA:1564,6
DA:1569,1155
DA:1571,1155
DA:1606,14
DA:1608,14
DA:1609,14
DA:1611,14
DA:1612,14
DA:1613,14
DA:1614,14
DA:1616,14
DA:1621,3
DA:1627,3
DA:1628,3
DA:1629,0
DA:1632,0
DA:1634,0
DA:1639,3
DA:1642,3
DA:1645,0
DA:1647,0
DA:1649,3
DA:1652,0
DA:1654,0
DA:1658,3
DA:1659,3
DA:1664,3
DA:1667,3
DA:1670,3
DA:1673,3
DA:1676,3
DA:1679,3
DA:1682,3
DA:1683,3
DA:1684,3
DA:1688,3
DA:1693,553
DA:1697,553
DA:1704,553
DA:1709,553
DA:1712,553
DA:1715,553
DA:1718,553
DA:1721,553
DA:1722,553
DA:1723,0
DA:1726,553
DA:1731,553
DA:1735,553
DA:1738,553
DA:1741,553
DA:1744,553
DA:1747,553
DA:1749,553
DA:1751,0
DA:1753,0
DA:1754,0
DA:1755,0
DA:1756,0
DA:1757,0
DA:1758,0
DA:1761,553
DA:1763,553
DA:1765,553
DA:1767,553
DA:1771,553
DA:1782,19
DA:1785,19
DA:1787,19
DA:1789,19
DA:1795,7
DA:1801,7
DA:1803,7
DA:1805,7
DA:1807,7
DA:1811,7
DA:1812,7
DA:1816,7
DA:1817,7
DA:1818,7
DA:1819,7
DA:1823,7
DA:1824,7
DA:1826,7
DA:1860,6
DA:1862,6
DA:1863,6
DA:1864,6
DA:1867,6
DA:1871,6
DA:1873,6
DA:1875,6
DA:1877,6
DA:1879,6
DA:1880,6
DA:1882,6
DA:1884,6
DA:1886,6
DA:1891,0
DA:1894,0
DA:1895,0
DA:1896,0
DA:1899,0
DA:1903,0
DA:1905,0
DA:1907,0
DA:1909,0
DA:1911,0
DA:1912,0
DA:1914,0
DA:1916,0
DA:1918,0
DA:1923,0
DA:1925,0
DA:1923,0
DA:1925,0
DA:1930,0
DA:1934,0
DA:1936,0
DA:1938,0
DA:1940,0
DA:1943,0
DA:1946,0
DA:1950,0
DA:1952,0
DA:1955,0
DA:1959,0
DA:1962,0
DA:1964,0
DA:1969,6
DA:1972,6
DA:1974,6
DA:1976,6
DA:1984,1159
DA:1987,1159
DA:1990,1159
DA:1993,1159
DA:1996,1159
DA:1999,1159
DA:2002,1155
DA:2004,1155
DA:2009,1159
DA:2012,1159
DA:2014,1153
DA:2015,559
DA:2016,559
DA:2018,0
DA:2024,1153
DA:2026,1153
DA:2027,1153
DA:2029,1153
DA:2032,1159
DA:2037,1712
DA:2039,1712
DA:2040,0
DA:2041,0
DA:2042,0
DA:2044,0
DA:2048,1712
DA:2055,6
DA:2058,6
DA:2060,6
DA:2062,0
DA:2071,6
DA:2078,6
DA:2080,6
DA:2083,6
DA:2085,6
end_of_record
TN:
SF:/home/atcsol/git/PROYECTO_OBDH/uah_exp_freertos_project_2024/service_libraries/edroomsl/edroomsl/src/edroomtc.cpp
FN:9,_ZN13CEDROOMstreamC2Ev
FNDA:0,_ZN13CEDROOMstreamC2Ev
FN:21,_ZN13CEDROOMstreamC2EPKc
FNDA:0,_ZN13CEDROOMstreamC2EPKc
FN:26,_ZN13CEDROOMstream4openEPKci
FNDA:0,_ZN13CEDROOMstream4openEPKci
FN:31,_ZN13CEDROOMstream5closeEv
FNDA:0,_ZN13CEDROOMstream5closeEv
FN:36,_ZN13CEDROOMstream6reopenEv
FNDA:0,_ZN13CEDROOMstream6reopenEv
FN:41,_ZN13CEDROOMstream7is_openEv
FNDA:0,_ZN13CEDROOMstream7is_openEv
FN:46,_ZN13CEDROOMstream4goodEv
FNDA:0,_ZN13CEDROOMstream4goodEv
FN:51,_ZN13CEDROOMstreamlsEPKc
FNDA:0,_ZN13CEDROOMstreamlsEPKc
FN:58,_ZN13CEDROOMstreamlsERKi
FNDA:0,_ZN13CEDROOMstreamlsERKi
FN:66,_ZN13CEDROOMstreamlsERKj
FNDA:0,_ZN13CEDROOMstreamlsERKj
FN:74,_ZN13CEDROOMstreamlsERKf
FNDA:0,_ZN13CEDROOMstreamlsERKf
DA:9,0
DA:11,0
DA:14,0
DA:16,0
DA:19,0
DA:21,0
DA:23,0
DA:24,0
DA:26,0
DA:29,0
DA:31,0
DA:34,0
DA:36,0
DA:39,0
DA:41,0
DA:43,0
DA:46,0
DA:48,0
DA:51,0
DA:54,0
DA:55,0
DA:58,0
DA:61,0
DA:63,0
DA:66,0
DA:69,0
DA:71,0
DA:74,0
DA:76,0
end_of_record
TN:
SF:/home/atcsol/git/PROYECTO_OBDH/uah_exp_freertos_project_2024/service_libraries/edroomsl/edroomsl_types/src/edroomsl_types.cpp
FN:4,TEDROOMUInt64_Serialize
FNDA:0,TEDROOMUInt64_Serialize
FN:9,TEDROOMUInt64_Deserialize
FNDA:0,TEDROOMUInt64_Deserialize
FN:14,TEDROOMUInt32_Serialize
FNDA:0,TEDROOMUInt32_Serialize
FN:19,TEDROOMUInt32_Deserialize
FNDA:0,TEDROOMUInt32_Deserialize
FN:24,TEDROOMUInt16_Serialize
FNDA:0,TEDROOMUInt16_Serialize
FN:29,TEDROOMUInt8_Serialize
FNDA:0,TEDROOMUInt8_Serialize
FN:34,TEDROOMUInt8_Deserialize
FNDA:0,TEDROOMUInt8_Deserialize
FN:39,TEDROOMUInt16_Deserialize
FNDA:0,TEDROOMUInt16_Deserialize
DA:4,0
DA:6,0
DA:7,0
DA:9,0
DA:11,0
DA:12,0
DA:14,0
DA:16,0
DA:17,0
DA:19,0
DA:21,0
DA:22,0
DA:24,0
DA:26,0
DA:27,0
DA:29,0
DA:31,0
DA:32,0
DA:34,0
DA:36,0
DA:37,0
DA:39,0
DA:41,0
DA:42,0
end_of_record
SF:/home/atcsol/git/PROYECTO_OBDH/uah_exp_freertos_project_2024/service_libraries/edroomsl/edroomsl_types/include/edroomsl_types/edroomsl_types.h
FN:33,_edroom_switch16
FNDA:0,_edroom_switch16
FN:38,_edroom_switch32
FNDA:0,_edroom_switch32
FN:46,_edroom_switch64
FNDA:0,_edroom_switch64
DA:33,0
DA:35,0
DA:38,0
DA:40,0
DA:41,0
DA:42,0
DA:46,0
DA:48,0
DA:49,0
DA:50,0
DA:51,0
DA:52,0
DA:53,0
DA:54,0
end_of_record
TN:
SF:/home/atcsol/git/PROYECTO_OBDH/uah_exp_freertos_project_2024/service_libraries/emu_tc_programming/src/emu_tc_programming.cpp
end_of_record
